
cpu_hyper.elf:     file format elf32-littlenios2
cpu_hyper.elf
architecture: nios2:r1, flags 0x00000112:
EXEC_P, HAS_SYMS, D_PAGED
start address 0x00200238

Program Header:
    LOAD off    0x00001000 vaddr 0x00200000 paddr 0x00200000 align 2**12
         filesz 0x00000020 memsz 0x00000020 flags r-x
    LOAD off    0x00001020 vaddr 0x00200020 paddr 0x00200020 align 2**12
         filesz 0x00007e08 memsz 0x00007e08 flags r-x
    LOAD off    0x00008e28 vaddr 0x00207e28 paddr 0x00209658 align 2**12
         filesz 0x00001830 memsz 0x00001830 flags rw-
    LOAD off    0x00000e88 vaddr 0x0020ae88 paddr 0x0020ae88 align 2**12
         filesz 0x00000000 memsz 0x00000430 flags rw-

Sections:
Idx Name          Size      VMA       LMA       File off  Algn
  0 .entry        00000020  00200000  00200000  00001000  2**5
                  CONTENTS, ALLOC, LOAD, READONLY, CODE
  1 .exceptions   00000218  00200020  00200020  00001020  2**2
                  CONTENTS, ALLOC, LOAD, READONLY, CODE
  2 .text         00007b9c  00200238  00200238  00001238  2**2
                  CONTENTS, ALLOC, LOAD, READONLY, CODE
  3 .rodata       00000054  00207dd4  00207dd4  00008dd4  2**2
                  CONTENTS, ALLOC, LOAD, READONLY, DATA
  4 .rwdata       00001830  00207e28  00209658  00008e28  2**2
                  CONTENTS, ALLOC, LOAD, DATA, SMALL_DATA
  5 .bss          00000430  0020ae88  0020ae88  0000ae88  2**2
                  ALLOC, SMALL_DATA
  6 .RAM          00000000  0020b2b8  0020b2b8  0000a658  2**0
                  CONTENTS
  7 .comment      0000002d  00000000  00000000  0000a658  2**0
                  CONTENTS, READONLY
  8 .debug_aranges 00000ac8  00000000  00000000  0000a688  2**3
                  CONTENTS, READONLY, DEBUGGING, OCTETS
  9 .debug_info   000143d5  00000000  00000000  0000b150  2**0
                  CONTENTS, READONLY, DEBUGGING, OCTETS
 10 .debug_abbrev 0000674d  00000000  00000000  0001f525  2**0
                  CONTENTS, READONLY, DEBUGGING, OCTETS
 11 .debug_line   00004e64  00000000  00000000  00025c72  2**0
                  CONTENTS, READONLY, DEBUGGING, OCTETS
 12 .debug_frame  00001918  00000000  00000000  0002aad8  2**2
                  CONTENTS, READONLY, DEBUGGING, OCTETS
 13 .debug_str    00001e4d  00000000  00000000  0002c3f0  2**0
                  CONTENTS, READONLY, DEBUGGING, OCTETS
 14 .debug_alt_sim_info 00000030  00000000  00000000  0002e240  2**2
                  CONTENTS, READONLY, DEBUGGING, OCTETS
 15 .debug_ranges 00000070  00000000  00000000  0002e270  2**3
                  CONTENTS, READONLY, DEBUGGING, OCTETS
 16 .debug_line_str 0000185a  00000000  00000000  0002e2e0  2**0
                  CONTENTS, READONLY, DEBUGGING, OCTETS
 17 .debug_rnglists 000003b6  00000000  00000000  0002fb3a  2**0
                  CONTENTS, READONLY, DEBUGGING, OCTETS
 18 .debug_loclists 0000037a  00000000  00000000  0002fef0  2**0
                  CONTENTS, READONLY, DEBUGGING, OCTETS
 19 .thread_model 00000003  00000000  00000000  00032ab1  2**0
                  CONTENTS, READONLY
 20 .cpu          0000000a  00000000  00000000  00032ab4  2**0
                  CONTENTS, READONLY
 21 .qsys         00000001  00000000  00000000  00032abe  2**0
                  CONTENTS, READONLY
 22 .simulation_enabled 00000001  00000000  00000000  00032abf  2**0
                  CONTENTS, READONLY
 23 .stderr_dev   00000009  00000000  00000000  00032ac0  2**0
                  CONTENTS, READONLY
 24 .stdin_dev    00000009  00000000  00000000  00032ac9  2**0
                  CONTENTS, READONLY
 25 .stdout_dev   00000009  00000000  00000000  00032ad2  2**0
                  CONTENTS, READONLY
 26 .sopc_system_name 0000000a  00000000  00000000  00032adb  2**0
                  CONTENTS, READONLY
 27 .quartus_project_dir 00000042  00000000  00000000  00032ae5  2**0
                  CONTENTS, READONLY
 28 .sopcinfo     000b17ec  00000000  00000000  00032b27  2**0
                  CONTENTS, READONLY
SYMBOL TABLE:
00200000 l    d  .entry	00000000 .entry
00200020 l    d  .exceptions	00000000 .exceptions
00200238 l    d  .text	00000000 .text
00207dd4 l    d  .rodata	00000000 .rodata
00207e28 l    d  .rwdata	00000000 .rwdata
0020ae88 l    d  .bss	00000000 .bss
0020b2b8 l    d  .RAM	00000000 .RAM
00000000 l    d  .comment	00000000 .comment
00000000 l    d  .debug_aranges	00000000 .debug_aranges
00000000 l    d  .debug_info	00000000 .debug_info
00000000 l    d  .debug_abbrev	00000000 .debug_abbrev
00000000 l    d  .debug_line	00000000 .debug_line
00000000 l    d  .debug_frame	00000000 .debug_frame
00000000 l    d  .debug_str	00000000 .debug_str
00000000 l    d  .debug_alt_sim_info	00000000 .debug_alt_sim_info
00000000 l    d  .debug_ranges	00000000 .debug_ranges
00000000 l    d  .debug_line_str	00000000 .debug_line_str
00000000 l    d  .debug_rnglists	00000000 .debug_rnglists
00000000 l    d  .debug_loclists	00000000 .debug_loclists
00000000 l    df *ABS*	00000000 crt0.o
00200280 l       .text	00000000 alt_after_alt_main
00000000 l    df *ABS*	00000000 alt_irq_handler.c
00000000 l    df *ABS*	00000000 alt_instruction_exception_entry.c
00000000 l    df *ABS*	00000000 hello_world.c
00000000 l    df *ABS*	00000000 puts.c
00000000 l    df *ABS*	00000000 strlen.c
00000000 l    df *ABS*	00000000 impure.c
00000000 l    df *ABS*	00000000 findfp.c
002004fc l     F .text	000000f0 std
002005ec l     F .text	0000003c stdin_init
00200628 l     F .text	0000003c stdout_init
00200664 l     F .text	0000003c stderr_init
002006a0 l     F .text	000000a4 sfmoreglue
00200744 l     F .text	00000044 stdio_exit_handler
00200788 l     F .text	00000060 global_stdio_init
00200968 l     F .text	000000a4 cleanup_stdio
0020ae88 l     O .bss	00000004 __sfp_recursive_mutex
00200aa4 l     F .text	00000028 __fp_lock
00200acc l     F .text	00000028 __fp_unlock
00000000 l    df *ABS*	00000000 fvwrite.c
00000000 l    df *ABS*	00000000 fwalk.c
00000000 l    df *ABS*	00000000 stdio.c
00000000 l    df *ABS*	00000000 wsetup.c
00000000 l    df *ABS*	00000000 memchr.c
00000000 l    df *ABS*	00000000 memcpy.c
00000000 l    df *ABS*	00000000 memmove.c
00000000 l    df *ABS*	00000000 memset.c
00000000 l    df *ABS*	00000000 closer.c
00000000 l    df *ABS*	00000000 reent.c
00000000 l    df *ABS*	00000000 lseekr.c
00000000 l    df *ABS*	00000000 readr.c
00000000 l    df *ABS*	00000000 writer.c
00000000 l    df *ABS*	00000000 exit.c
00000000 l    df *ABS*	00000000 freer.c
00000000 l    df *ABS*	00000000 mallocr.c
00202780 l     F .text	000003c4 malloc_extend_top
00000000 l    df *ABS*	00000000 reallocr.c
00000000 l    df *ABS*	00000000 fclose.c
00000000 l    df *ABS*	00000000 fflush.c
00000000 l    df *ABS*	00000000 makebuf.c
00000000 l    df *ABS*	00000000 fstatr.c
00000000 l    df *ABS*	00000000 isattyr.c
00000000 l    df *ABS*	00000000 sbrkr.c
00000000 l    df *ABS*	00000000 __call_atexit.c
0020aea0 l     O .bss	00000004 __atexit_recursive_mutex
00000000 l    df *ABS*	00000000 lib2-divmod.c
00000000 l    df *ABS*	00000000 alt_close.c
00204ed0 l     F .text	0000003c alt_get_errno
00000000 l    df *ABS*	00000000 alt_dev.c
00204fdc l     F .text	0000002c alt_dev_null_write
00000000 l    df *ABS*	00000000 alt_errno.c
00000000 l    df *ABS*	00000000 alt_exit.c
00000000 l    df *ABS*	00000000 alt_fstat.c
00205044 l     F .text	0000003c alt_get_errno
00000000 l    df *ABS*	00000000 alt_isatty.c
00205130 l     F .text	0000003c alt_get_errno
00000000 l    df *ABS*	00000000 alt_load.c
00205210 l     F .text	00000068 alt_load_section
00000000 l    df *ABS*	00000000 alt_lseek.c
002052fc l     F .text	0000003c alt_get_errno
00000000 l    df *ABS*	00000000 alt_main.c
00000000 l    df *ABS*	00000000 alt_malloc_lock.c
00000000 l    df *ABS*	00000000 alt_read.c
002054d0 l     F .text	0000003c alt_get_errno
00000000 l    df *ABS*	00000000 alt_release_fd.c
00000000 l    df *ABS*	00000000 alt_sbrk.c
00209648 l     O .rwdata	00000004 heap_end
00000000 l    df *ABS*	00000000 alt_write.c
00205718 l     F .text	0000003c alt_get_errno
00000000 l    df *ABS*	00000000 alt_sys_init.c
0020584c l     F .text	00000034 alt_dev_reg
00208500 l     O .rwdata	00001060 jtag_uart
00209560 l     O .rwdata	000000c4 uart_rs
00000000 l    df *ABS*	00000000 altera_avalon_jtag_uart_fd.c
00000000 l    df *ABS*	00000000 altera_avalon_jtag_uart_init.c
00205b48 l     F .text	00000214 altera_avalon_jtag_uart_irq
00205d5c l     F .text	000000a8 altera_avalon_jtag_uart_timeout
00000000 l    df *ABS*	00000000 altera_avalon_jtag_uart_ioctl.c
00000000 l    df *ABS*	00000000 altera_avalon_jtag_uart_read.c
00000000 l    df *ABS*	00000000 altera_avalon_jtag_uart_write.c
00000000 l    df *ABS*	00000000 altera_avalon_uart_fd.c
00000000 l    df *ABS*	00000000 altera_avalon_uart_init.c
00206564 l     F .text	0000009c altera_avalon_uart_irq
00206600 l     F .text	000000e0 altera_avalon_uart_rxirq
002066e0 l     F .text	00000144 altera_avalon_uart_txirq
00000000 l    df *ABS*	00000000 altera_avalon_uart_read.c
00206878 l     F .text	0000003c alt_get_errno
00000000 l    df *ABS*	00000000 altera_avalon_uart_write.c
00206a9c l     F .text	0000003c alt_get_errno
00000000 l    df *ABS*	00000000 alt_alarm_start.c
00000000 l    df *ABS*	00000000 alt_dcache_flush_all.c
00000000 l    df *ABS*	00000000 alt_dev_llist_insert.c
00206e38 l     F .text	0000003c alt_get_errno
00000000 l    df *ABS*	00000000 alt_do_ctors.c
00000000 l    df *ABS*	00000000 alt_do_dtors.c
00000000 l    df *ABS*	00000000 alt_icache_flush_all.c
00000000 l    df *ABS*	00000000 alt_iic.c
00000000 l    df *ABS*	00000000 alt_iic_isr_register.c
00000000 l    df *ABS*	00000000 alt_io_redirect.c
002072b0 l     F .text	000000b0 alt_open_fd
00000000 l    df *ABS*	00000000 alt_irq_vars.c
00000000 l    df *ABS*	00000000 alt_open.c
002073dc l     F .text	0000003c alt_get_errno
00207418 l     F .text	000000b8 alt_file_locked
00000000 l    df *ABS*	00000000 alt_tick.c
00000000 l    df *ABS*	00000000 altera_nios2_gen2_irq.c
00000000 l    df *ABS*	00000000 alt_find_dev.c
00000000 l    df *ABS*	00000000 alt_find_file.c
00000000 l    df *ABS*	00000000 alt_get_fd.c
00000000 l    df *ABS*	00000000 alt_icache_flush.c
00000000 l    df *ABS*	00000000 atexit.c
00000000 l    df *ABS*	00000000 memcmp.c
00000000 l    df *ABS*	00000000 __atexit.c
0020aec4 g     O .bss	00000004 alt_instruction_exception_handler
00204ad0 g     F .text	00000060 _isatty_r
0020540c g     F .text	0000007c alt_main
002002b8 g     F .text	00000118 _puts_r
0020b028 g     O .bss	00000100 alt_irq
00201ee0 g     F .text	00000070 _lseek_r
00209658 g       *ABS*	00000000 __flash_rwdata_start
0020b2b8 g       *ABS*	00000000 __alt_heap_start
002013c8 g     F .text	000000a0 __sseek
00200a0c g     F .text	00000058 __sinit
002054ac g     F .text	00000024 __malloc_unlock
00201998 g     F .text	00000208 memmove
002077f4 g     F .text	00000024 altera_nios2_gen2_irq_init
00200000 g     F .entry	0000001c __reset
0020ae90 g     O .bss	00000004 __stdio_exit_handler
00200020 g       *ABS*	00000000 __flash_exceptions_start
00204a68 g     F .text	00000068 _fstat_r
0020ae8c g     O .bss	00000004 errno
002012e4 g     F .text	00000030 __seofread
0020aeac g     O .bss	00000004 alt_argv
00211624 g       *ABS*	00000000 _gp
00208380 g     O .rwdata	00000180 alt_fd_list
00207818 g     F .text	00000090 alt_find_dev
00201810 g     F .text	00000188 memcpy
00207360 g     F .text	0000007c alt_io_redirect
00207dd4 g       *ABS*	00000000 __DTOR_END__
002003d0 g     F .text	00000038 puts
00207ae0 g     F .text	00000074 alt_exception_cause_generated_bad_addr
00205f60 g     F .text	00000220 altera_avalon_jtag_uart_read
00204e10 g     F .text	00000064 .hidden __udivsi3
0020516c g     F .text	000000a4 isatty
00207a50 g     F .text	00000090 alt_icache_flush
0020ae94 g     O .bss	00000004 __malloc_top_pad
00200b7c g     F .text	000005d4 __sfvwrite_r
00204b30 g     F .text	00000060 _sbrk_r
00201f50 g     F .text	00000070 _read_r
00209640 g     O .rwdata	00000004 alt_max_fd
002042a4 g     F .text	0000012c _fclose_r
0020478c g     F .text	0000005c fflush
0020ae98 g     O .bss	00000004 __malloc_max_sbrked_mem
00205338 g     F .text	000000d4 lseek
002036b0 g     F .text	00000bf4 _realloc_r
0020b2b8 g       *ABS*	00000000 __bss_end
002071c8 g     F .text	000000e8 alt_iic_isr_register
002076c8 g     F .text	0000012c alt_tick
002064b8 g     F .text	000000ac altera_avalon_uart_init
00200af4 g     F .text	00000044 __fp_lock_all
0020717c g     F .text	0000004c alt_ic_irq_enabled
00207624 g     F .text	000000a4 alt_alarm_stop
0020aeb4 g     O .bss	00000004 alt_irq_active
002000fc g     F .exceptions	000000c8 alt_irq_handler
00208358 g     O .rwdata	00000028 alt_dev_null
00201dc4 g     F .text	0000011c _reclaim_reent
00206dec g     F .text	0000004c alt_dcache_flush_all
00209658 g       *ABS*	00000000 __ram_rwdata_end
0020aec8 g     O .bss	00000138 __sf
00209638 g     O .rwdata	00000008 alt_dev_list
00205754 g     F .text	000000f8 write
00207e28 g       *ABS*	00000000 __ram_rodata_end
00205080 g     F .text	000000b0 fstat
00204e74 g     F .text	0000005c .hidden __umodsi3
0020b2b8 g       *ABS*	00000000 end
00206ad8 g     F .text	000001b4 altera_avalon_uart_write
00205a88 g     F .text	000000c0 altera_avalon_jtag_uart_init
002001c4 g     F .exceptions	00000074 alt_instruction_exception_entry
00207dd4 g       *ABS*	00000000 __CTOR_LIST__
00232000 g       *ABS*	00000000 __alt_stack_pointer
00206408 g     F .text	00000060 altera_avalon_uart_write_fd
00206468 g     F .text	00000050 altera_avalon_uart_close_fd
00206180 g     F .text	00000228 altera_avalon_jtag_uart_write
00200a64 g     F .text	00000020 __sfp_lock_acquire
0020165c g     F .text	000001b4 memchr
00202068 g     F .text	00000558 _free_r
00204b90 g     F .text	0000018c __call_exitprocs
0020b128 g     O .bss	00000190 __atexit0
0020962c g     O .rwdata	00000004 __malloc_sbrk_base
00200238 g     F .text	0000004c _start
0020aeb8 g     O .bss	00000004 _alt_tick_rate
0020aebc g     O .bss	00000008 _alt_nticks
0020550c g     F .text	000000fc read
002058bc g     F .text	00000068 alt_sys_init
00207cc4 g     F .text	00000110 __register_exitproc
00205e04 g     F .text	00000068 altera_avalon_jtag_uart_close
00207e28 g       *ABS*	00000000 __ram_rwdata_start
00207dd4 g       *ABS*	00000000 __ram_rodata_start
0020b000 g     O .bss	00000028 __malloc_current_mallinfo
00205924 g     F .text	00000060 altera_avalon_jtag_uart_read_fd
002079b0 g     F .text	000000a0 alt_get_fd
00201d64 g     F .text	00000060 _close_r
00207b90 g     F .text	00000134 memcmp
002059e4 g     F .text	00000050 altera_avalon_jtag_uart_close_fd
0020b2b8 g       *ABS*	00000000 __alt_stack_base
00205a34 g     F .text	00000054 altera_avalon_jtag_uart_ioctl_fd
002014bc g     F .text	000001a0 __swsetup_r
002007e8 g     F .text	00000180 __sfp
00207f50 g     O .rwdata	00000408 __malloc_av_
0020aea4 g     O .bss	00000004 __atexit
00201248 g     F .text	0000009c __sread
002078a8 g     F .text	00000108 alt_find_file
00206e74 g     F .text	000000a8 alt_dev_llist_insert
00205488 g     F .text	00000024 __malloc_lock
00205660 g     F .text	000000b8 sbrk
00204704 g     F .text	00000088 _fflush_r
0020ae88 g       *ABS*	00000000 __bss_start
00201ba0 g     F .text	000001c4 memset
00200284 g     F .text	00000034 main
00200000 g       *ABS*	00000000 __alt_mem_RAM
0020aeb0 g     O .bss	00000004 alt_envp
0020ae9c g     O .bss	00000004 __malloc_max_total_mem
00205984 g     F .text	00000060 altera_avalon_jtag_uart_write_fd
00201468 g     F .text	00000054 __sclose
00232000 g       *ABS*	00000000 __alt_heap_limit
002043d0 g     F .text	00000038 fclose
00202b44 g     F .text	00000b6c _malloc_r
00209644 g     O .rwdata	00000004 alt_errno
00204d1c g     F .text	00000080 .hidden __divsi3
002025c0 g     F .text	000001c0 _malloc_trim_r
00207dd4 g       *ABS*	00000000 __CTOR_END__
00207dd4 g       *ABS*	00000000 __flash_rodata_start
00207dd4 g       *ABS*	00000000 __DTOR_LIST__
00205880 g     F .text	0000003c alt_irq_init
00205608 g     F .text	00000058 alt_release_fd
00207b54 g     F .text	0000003c atexit
00201fc0 g     F .text	00000070 _write_r
00209624 g     O .rwdata	00000004 _impure_ptr
0020aea8 g     O .bss	00000004 alt_argc
00204408 g     F .text	000002fc __sflush_r
00206f80 g     F .text	00000064 _do_dtors
00201150 g     F .text	000000f8 _fwalk_sglue
00200020 g       .exceptions	00000000 alt_irq_entry
00200b38 g     F .text	00000044 __fp_unlock_all
00209630 g     O .rwdata	00000008 alt_fs_list
00200020 g       *ABS*	00000000 __ram_exceptions_start
00204980 g     F .text	000000e8 __swhatbuf_r
00207018 g     F .text	00000050 alt_ic_isr_register
00207f44 g     O .rwdata	0000000c __sglue
00209658 g       *ABS*	00000000 _edata
002063a8 g     F .text	00000060 altera_avalon_uart_read_fd
0020b2b8 g       *ABS*	00000000 _end
00200238 g       *ABS*	00000000 __ram_exceptions_end
00205e6c g     F .text	000000f4 altera_avalon_jtag_uart_ioctl
002070f0 g     F .text	0000008c alt_ic_irq_disable
00201314 g     F .text	000000b4 __swrite
00209628 g     O .rwdata	00000004 __malloc_trim_threshold
00202030 g     F .text	00000038 exit
00204d9c g     F .text	00000074 .hidden __modsi3
00207e28 g     O .rwdata	0000011c _impure_data
00232000 g       *ABS*	00000000 __alt_data_end
00200020 g     F .exceptions	00000000 alt_exception
00200a84 g     F .text	00000020 __sfp_lock_release
00206824 g     F .text	00000054 altera_avalon_uart_close
00205008 g     F .text	0000003c _exit
00206c8c g     F .text	00000160 alt_alarm_start
002047e8 g     F .text	00000198 __smakebuf_r
00200408 g     F .text	000000f4 strlen
002074d0 g     F .text	00000154 open
00206fe4 g     F .text	00000034 alt_icache_flush_all
0020964c g     O .rwdata	00000004 alt_priority_mask
00207068 g     F .text	00000088 alt_ic_irq_enable
002068b4 g     F .text	000001e8 altera_avalon_uart_read
00209650 g     O .rwdata	00000008 alt_alarm_list
00206f1c g     F .text	00000064 _do_ctors
00204f0c g     F .text	000000d0 close
00205278 g     F .text	00000084 alt_load



Disassembly of section .entry:

00200000 <__reset>:
#if NIOS2_ICACHE_SIZE > 0 && defined(ALT_ALLOW_CODE_AT_RESET) && (!defined(ALT_SIM_OPTIMIZE) || defined(NIOS2_ECC_PRESENT))
    /* Assume the instruction cache size is always a power of two. */
#if NIOS2_ICACHE_SIZE > 0x8000
    movhi r2, %hi(NIOS2_ICACHE_SIZE)
#else
    movui r2, NIOS2_ICACHE_SIZE
  200000:	00840014 	movui	r2,4096
#endif

0:
    initi r2
  200004:	1001483a 	initi	r2
    addi r2, r2, -NIOS2_ICACHE_LINE_SIZE
  200008:	10bff804 	addi	r2,r2,-32
    bgt r2, zero, 0b
  20000c:	00bffd16 	blt	zero,r2,200004 <__reset+0x4>
 * Jump to the _start entry point in the .text section if reset code
 * is allowed or if optimizing for RTL simulation.
 */
#if defined(ALT_ALLOW_CODE_AT_RESET) || defined(ALT_SIM_OPTIMIZE)
    /* Jump to the _start entry point in the .text section. */
    movhi r1, %hi(_start)
  200010:	00400834 	movhi	at,32
    ori r1, r1, %lo(_start)
  200014:	08408e14 	ori	at,at,568
    jmp r1
  200018:	0800683a 	jmp	at
  20001c:	00000000 	call	0 <__reset-0x200000>

Disassembly of section .exceptions:

00200020 <alt_exception>:

#else /* ALT_EXCEPTION_STACK disabled */
        /* 
         * Reserve space on normal stack for registers about to be pushed.
         */
        addi  sp, sp, -76
  200020:	deffed04 	addi	sp,sp,-76
         * documentation for details).
         *
         * Leave a gap in the stack frame at 4(sp) for the muldiv handler to
         * store zero into.
         */
        stw   ra,  0(sp)
  200024:	dfc00015 	stw	ra,0(sp)
        stw   r1,   8(sp)
  200028:	d8400215 	stw	at,8(sp)
        stw   r2,  12(sp)
  20002c:	d8800315 	stw	r2,12(sp)
        stw   r3,  16(sp)
  200030:	d8c00415 	stw	r3,16(sp)
        stw   r4,  20(sp)
  200034:	d9000515 	stw	r4,20(sp)
        stw   r5,  24(sp)
  200038:	d9400615 	stw	r5,24(sp)
        stw   r6,  28(sp)
  20003c:	d9800715 	stw	r6,28(sp)
        stw   r7,  32(sp)
  200040:	d9c00815 	stw	r7,32(sp)
        rdctl r5, estatus   /* Read early to avoid usage stall */
  200044:	000b307a 	rdctl	r5,estatus
        stw   r8,  36(sp)
  200048:	da000915 	stw	r8,36(sp)
        stw   r9,  40(sp)
  20004c:	da400a15 	stw	r9,40(sp)
        stw   r10, 44(sp)
  200050:	da800b15 	stw	r10,44(sp)
        stw   r11, 48(sp)
  200054:	dac00c15 	stw	r11,48(sp)
        stw   r12, 52(sp)
  200058:	db000d15 	stw	r12,52(sp)
        stw   r13, 56(sp)
  20005c:	db400e15 	stw	r13,56(sp)
        stw   r14, 60(sp)
  200060:	db800f15 	stw	r14,60(sp)
        stw   r15, 64(sp)
  200064:	dbc01015 	stw	r15,64(sp)
        /*
         * ea-4 contains the address of the instruction being executed
         * when the exception occured. For interrupt exceptions, we will
         * will be re-issue the isntruction. Store it in 72(sp)
         */
        stw   r5,  68(sp)  /* estatus */
  200068:	d9401115 	stw	r5,68(sp)
        addi  r15, ea, -4  /* instruction that caused exception */
  20006c:	ebffff04 	addi	r15,ea,-4
        stw   r15,  72(sp)
  200070:	dbc01215 	stw	r15,72(sp)
#else
        /*
         * Test to see if the exception was a software exception or caused 
         * by an external interrupt, and vector accordingly.
         */
        rdctl r4, ipending
  200074:	0009313a 	rdctl	r4,ipending
        andi  r2, r5, 1
  200078:	2880004c 	andi	r2,r5,1
        beq   r2, zero, .Lnot_irq
  20007c:	10000326 	beq	r2,zero,20008c <alt_exception+0x6c>
        beq   r4, zero, .Lnot_irq
  200080:	20000226 	beq	r4,zero,20008c <alt_exception+0x6c>
        /*
         * Now that all necessary registers have been preserved, call 
         * alt_irq_handler() to process the interrupts.
         */

        call alt_irq_handler
  200084:	02000fc0 	call	2000fc <alt_irq_handler>

        .section .exceptions.irqreturn, "xa"

        br    .Lexception_exit
  200088:	00000706 	br	2000a8 <alt_exception+0x88>
         * upon completion, so we write ea (address of instruction *after*
         * the one where the exception occured) into 72(sp). The actual
         * instruction that caused the exception is written in r2, which these
         * handlers will utilize.
         */
        stw ea, 72(sp) /* EA is PC+4 so will skip over instruction causing exception */
  20008c:	df401215 	stw	ea,72(sp)
.Lunknown_16bit:
        addi.n r4, r4, 2 /* Need PC+2 to skip over instruction causing exception */
        stw r4, 72(sp)

#else /* CDX is not Enabled and all instructions are 32bits */
        ldw r2, -4(ea) /* Instruction value that caused exception */
  200090:	e8bfff17 	ldw	r2,-4(ea)
  200094:	e93fff04 	addi	r4,ea,-4
  200098:	02001c40 	call	2001c4 <alt_instruction_exception_entry>
  20009c:	1000021e 	bne	r2,zero,2000a8 <alt_exception+0x88>
  2000a0:	ebffff04 	addi	r15,ea,-4
  2000a4:	dbc01215 	stw	r15,72(sp)
        /* 
         * Restore the saved registers, so that all general purpose registers 
         * have been restored to their state at the time the interrupt occured.
         */

        ldw   r5,  68(sp)
  2000a8:	d9401117 	ldw	r5,68(sp)
        ldw   ea,  72(sp)  /* This becomes the PC once eret is executed */
  2000ac:	df401217 	ldw	ea,72(sp)
        ldw   ra,   0(sp)
  2000b0:	dfc00017 	ldw	ra,0(sp)

        wrctl estatus, r5
  2000b4:	2801707a 	wrctl	estatus,r5

        ldw   r1,   8(sp)
  2000b8:	d8400217 	ldw	at,8(sp)
        ldw   r2,  12(sp)
  2000bc:	d8800317 	ldw	r2,12(sp)
        ldw   r3,  16(sp)
  2000c0:	d8c00417 	ldw	r3,16(sp)
        ldw   r4,  20(sp)
  2000c4:	d9000517 	ldw	r4,20(sp)
        ldw   r5,  24(sp)
  2000c8:	d9400617 	ldw	r5,24(sp)
        ldw   r6,  28(sp)
  2000cc:	d9800717 	ldw	r6,28(sp)
        ldw   r7,  32(sp)
  2000d0:	d9c00817 	ldw	r7,32(sp)

#if defined(ALT_EXCEPTION_STACK) && defined(ALT_STACK_CHECK)
        ldw   et, %gprel(alt_exception_old_stack_limit)(gp)
#endif

        ldw   r8,  36(sp)
  2000d4:	da000917 	ldw	r8,36(sp)
        ldw   r9,  40(sp)
  2000d8:	da400a17 	ldw	r9,40(sp)
        ldw   r10, 44(sp)
  2000dc:	da800b17 	ldw	r10,44(sp)
        ldw   r11, 48(sp)
  2000e0:	dac00c17 	ldw	r11,48(sp)
        ldw   r12, 52(sp)
  2000e4:	db000d17 	ldw	r12,52(sp)
        ldw   r13, 56(sp)
  2000e8:	db400e17 	ldw	r13,56(sp)
        ldw   r14, 60(sp)
  2000ec:	db800f17 	ldw	r14,60(sp)
        ldw   r15, 64(sp)
  2000f0:	dbc01017 	ldw	r15,64(sp)
        stw   et, %gprel(alt_stack_limit_value)(gp)
        stw   zero, %gprel(alt_exception_old_stack_limit)(gp)
#endif /* ALT_STACK_CHECK */
        ldw   sp,  76(sp)
#else /* ALT_EXCEPTION_STACK disabled */
        addi  sp, sp, 76
  2000f4:	dec01304 	addi	sp,sp,76

        /*
         * Return to the interrupted instruction.
         */

        eret
  2000f8:	ef80083a 	eret

002000fc <alt_irq_handler>:
 * instruction is present if the macro ALT_CI_INTERRUPT_VECTOR defined.
 */

void alt_irq_handler (void) __attribute__ ((section (".exceptions")));
void alt_irq_handler (void)
{
  2000fc:	defff904 	addi	sp,sp,-28
  200100:	dfc00615 	stw	ra,24(sp)
  200104:	df000515 	stw	fp,20(sp)
  200108:	df000504 	addi	fp,sp,20
  
  /*
   * Notify the operating system that we are at interrupt level.
   */ 
  
  ALT_OS_INT_ENTER();
  20010c:	0001883a 	nop
#ifndef NIOS2_EIC_PRESENT
static ALT_INLINE alt_u32 ALT_ALWAYS_INLINE alt_irq_pending (void)
{
  alt_u32 active;

  NIOS2_READ_IPENDING (active);
  200110:	0005313a 	rdctl	r2,ipending
  200114:	e0bffc15 	stw	r2,-16(fp)

  return active;
  200118:	e0bffc17 	ldw	r2,-16(fp)
   * Consider the case where the high priority interupt is asserted during
   * the interrupt entry sequence for a lower priority interrupt to see why
   * this is the case.
   */

  active = alt_irq_pending ();
  20011c:	e0bfff15 	stw	r2,-4(fp)

  do
  {
    i = 0;
  200120:	e03ffd15 	stw	zero,-12(fp)
    mask = 1;
  200124:	00800044 	movi	r2,1
  200128:	e0bffe15 	stw	r2,-8(fp)
     * called to clear the interrupt condition.
     */

    do
    {
      if (active & mask)
  20012c:	e0ffff17 	ldw	r3,-4(fp)
  200130:	e0bffe17 	ldw	r2,-8(fp)
  200134:	1884703a 	and	r2,r3,r2
  200138:	10001126 	beq	r2,zero,200180 <alt_irq_handler+0x84>
      { 
#ifdef ALT_ENHANCED_INTERRUPT_API_PRESENT
        alt_irq[i].handler(alt_irq[i].context); 
  20013c:	e0bffd17 	ldw	r2,-12(fp)
  200140:	100690fa 	slli	r3,r2,3
  200144:	00800874 	movhi	r2,33
  200148:	1885883a 	add	r2,r3,r2
  20014c:	10ec0a17 	ldw	r3,-20440(r2)
  200150:	e0bffd17 	ldw	r2,-12(fp)
  200154:	100890fa 	slli	r4,r2,3
  200158:	00800874 	movhi	r2,33
  20015c:	2085883a 	add	r2,r4,r2
  200160:	10ac0b17 	ldw	r2,-20436(r2)
  200164:	1009883a 	mov	r4,r2
  200168:	183ee83a 	callr	r3
#else
        alt_irq[i].handler(alt_irq[i].context, i); 
#endif
        break;
  20016c:	0001883a 	nop
  NIOS2_READ_IPENDING (active);
  200170:	0005313a 	rdctl	r2,ipending
  200174:	e0bffb15 	stw	r2,-20(fp)
  return active;
  200178:	e0bffb17 	ldw	r2,-20(fp)
  20017c:	00000706 	br	20019c <alt_irq_handler+0xa0>
      }
      mask <<= 1;
  200180:	e0bffe17 	ldw	r2,-8(fp)
  200184:	1085883a 	add	r2,r2,r2
  200188:	e0bffe15 	stw	r2,-8(fp)
      i++;
  20018c:	e0bffd17 	ldw	r2,-12(fp)
  200190:	10800044 	addi	r2,r2,1
  200194:	e0bffd15 	stw	r2,-12(fp)
      if (active & mask)
  200198:	003fe406 	br	20012c <alt_irq_handler+0x30>

    } while (1);

    active = alt_irq_pending ();
  20019c:	e0bfff15 	stw	r2,-4(fp)
    
  } while (active);
  2001a0:	e0bfff17 	ldw	r2,-4(fp)
  2001a4:	103fde1e 	bne	r2,zero,200120 <alt_irq_handler+0x24>

  /*
   * Notify the operating system that interrupt processing is complete.
   */ 

  ALT_OS_INT_EXIT();
  2001a8:	0001883a 	nop
}
  2001ac:	0001883a 	nop
  2001b0:	e037883a 	mov	sp,fp
  2001b4:	dfc00117 	ldw	ra,4(sp)
  2001b8:	df000017 	ldw	fp,0(sp)
  2001bc:	dec00204 	addi	sp,sp,8
  2001c0:	f800283a 	ret

002001c4 <alt_instruction_exception_entry>:
 * that handler if it has been registered. Absent a handler, it will
 * break break or hang as discussed below.
 */
int 
alt_instruction_exception_entry (alt_u32 exception_pc)
{
  2001c4:	defffb04 	addi	sp,sp,-20
  2001c8:	dfc00415 	stw	ra,16(sp)
  2001cc:	df000315 	stw	fp,12(sp)
  2001d0:	df000304 	addi	fp,sp,12
  2001d4:	e13ffd15 	stw	r4,-12(fp)
 * NIOS2_EXCEPTION_CAUSE_NOT_PRESENT. Your handling routine should
 * check the validity of the cause argument before proceeding.
 */
#ifdef NIOS2_HAS_EXTRA_EXCEPTION_INFO
  /* Get exception cause & "badaddr" */
  NIOS2_READ_EXCEPTION(cause);
  2001d8:	000531fa 	rdctl	r2,exception
  2001dc:	e0bfff15 	stw	r2,-4(fp)
  cause = ( (cause & NIOS2_EXCEPTION_REG_CAUSE_MASK) >>
  2001e0:	e0bfff17 	ldw	r2,-4(fp)
  2001e4:	1004d0ba 	srli	r2,r2,2
  2001e8:	108007cc 	andi	r2,r2,31
  2001ec:	e0bfff15 	stw	r2,-4(fp)
              NIOS2_EXCEPTION_REG_CAUSE_OFST );

  NIOS2_READ_BADADDR(badaddr);
  2001f0:	0005333a 	rdctl	r2,badaddr
  2001f4:	e0bffe15 	stw	r2,-8(fp)
#else
  cause = NIOS2_EXCEPTION_CAUSE_NOT_PRESENT;
  badaddr = 0;
#endif /* NIOS2_HAS_EXTRA_EXCEPTION_INFO */

  if(alt_instruction_exception_handler) {
  2001f8:	d0a62817 	ldw	r2,-26464(gp)
  2001fc:	10000726 	beq	r2,zero,20021c <alt_instruction_exception_entry+0x58>
     * Call handler. Its return value indicates whether the exception-causing
     * instruction should be re-issued. The code that called us,
     * alt_eceptions_entry.S, will look at this value and adjust the ea
     * register as necessary
     */
    return alt_instruction_exception_handler(cause, exception_pc, badaddr);
  200200:	d0a62817 	ldw	r2,-26464(gp)
  200204:	e0ffff17 	ldw	r3,-4(fp)
  200208:	e1bffe17 	ldw	r6,-8(fp)
  20020c:	e17ffd17 	ldw	r5,-12(fp)
  200210:	1809883a 	mov	r4,r3
  200214:	103ee83a 	callr	r2
  200218:	00000206 	br	200224 <alt_instruction_exception_entry+0x60>
   *    (a peripheral which negates its interrupt output before its
   *    interrupt handler has been executed will cause spurious interrupts)
   */
  else {
#ifdef NIOS2_HAS_DEBUG_STUB
    NIOS2_BREAK();
  20021c:	003da03a 	break	0
      ;
#endif /* NIOS2_HAS_DEBUG_STUB */
  }

  /* We should not get here. Remove compiler warning. */
  return NIOS2_EXCEPTION_RETURN_REISSUE_INST;
  200220:	0005883a 	mov	r2,zero
}
  200224:	e037883a 	mov	sp,fp
  200228:	dfc00117 	ldw	ra,4(sp)
  20022c:	df000017 	ldw	fp,0(sp)
  200230:	dec00204 	addi	sp,sp,8
  200234:	f800283a 	ret

Disassembly of section .text:

00200238 <_start>:

    /* Assume the data cache size is always a power of two. */
#if NIOS2_DCACHE_SIZE > 0x8000
    movhi r2, %hi(NIOS2_DCACHE_SIZE)
#else
    movui r2, NIOS2_DCACHE_SIZE
  200238:	00820014 	movui	r2,2048
#endif

0:
    initd 0(r2)
  20023c:	10000033 	initd	0(r2)
#ifdef NIOS2_ECC_PRESENT
    addi r2, r2, -4
#else
    addi r2, r2, -NIOS2_DCACHE_LINE_SIZE
  200240:	10bff804 	addi	r2,r2,-32
#endif
    bgt r2, zero, 0b
  200244:	00bffd16 	blt	zero,r2,20023c <_start+0x4>

    /*
     * Now that the caches are initialized, set up the stack pointer and global pointer.
     * The values provided by the linker are assumed to be correctly aligned.
     */
    movhi sp, %hi(__alt_stack_pointer)
  200248:	06c008f4 	movhi	sp,35
    ori sp, sp, %lo(__alt_stack_pointer)
  20024c:	dec80014 	ori	sp,sp,8192
    movhi gp, %hi(_gp)
  200250:	06800874 	movhi	gp,33
    ori gp, gp, %lo(_gp)
  200254:	d6858914 	ori	gp,gp,5668
 */
#ifndef ALT_SIM_OPTIMIZE
    /* Log that the BSS is about to be cleared. */
    ALT_LOG_PUTS(alt_log_msg_bss)

    movhi r2, %hi(__bss_start)
  200258:	00800834 	movhi	r2,32
    ori r2, r2, %lo(__bss_start)
  20025c:	10aba214 	ori	r2,r2,44680

    movhi r3, %hi(__bss_end)
  200260:	00c00834 	movhi	r3,32
    ori r3, r3, %lo(__bss_end)
  200264:	18ecae14 	ori	r3,r3,45752

    beq r2, r3, 1f
  200268:	10c00326 	beq	r2,r3,200278 <_start+0x40>

0:
    stw zero, (r2)
  20026c:	10000015 	stw	zero,0(r2)
    addi r2, r2, 4
  200270:	10800104 	addi	r2,r2,4
    bltu r2, r3, 0b
  200274:	10fffd36 	bltu	r2,r3,20026c <_start+0x34>
     * section aren't defined until alt_load() has been called).
     */
    mov   et, zero
#endif

    call alt_load
  200278:	02052780 	call	205278 <alt_load>

    /* Log that alt_main is about to be called. */
    ALT_LOG_PUTS(alt_log_msg_alt_main)

    /* Call the C entry point. It should never return. */
    call alt_main
  20027c:	020540c0 	call	20540c <alt_main>

00200280 <alt_after_alt_main>:

    /* Wait in infinite loop in case alt_main does return. */
alt_after_alt_main:
    br alt_after_alt_main
  200280:	003fff06 	br	200280 <alt_after_alt_main>

00200284 <main>:
 */

#include <stdio.h>

int main()
{
  200284:	defffe04 	addi	sp,sp,-8
  200288:	dfc00115 	stw	ra,4(sp)
  20028c:	df000015 	stw	fp,0(sp)
  200290:	d839883a 	mov	fp,sp
  printf("Hello from Nios II!\n");
  200294:	01000834 	movhi	r4,32
  200298:	211f7504 	addi	r4,r4,32212
  20029c:	02003d00 	call	2003d0 <puts>

  return 0;
  2002a0:	0005883a 	mov	r2,zero
}
  2002a4:	e037883a 	mov	sp,fp
  2002a8:	dfc00117 	ldw	ra,4(sp)
  2002ac:	df000017 	ldw	fp,0(sp)
  2002b0:	dec00204 	addi	sp,sp,8
  2002b4:	f800283a 	ret

002002b8 <_puts_r>:
 */

int
_puts_r (struct _reent *ptr,
       const char * s)
{
  2002b8:	defff104 	addi	sp,sp,-60
  2002bc:	dfc00e15 	stw	ra,56(sp)
  2002c0:	df000d15 	stw	fp,52(sp)
  2002c4:	df000d04 	addi	fp,sp,52
  2002c8:	e13ff415 	stw	r4,-48(fp)
  2002cc:	e17ff315 	stw	r5,-52(fp)
#ifdef _FVWRITE_IN_STREAMIO
  int result;
  size_t c = strlen (s);
  2002d0:	e13ff317 	ldw	r4,-52(fp)
  2002d4:	02004080 	call	200408 <strlen>
  2002d8:	e0bfff15 	stw	r2,-4(fp)
  struct __suio uio;
  struct __siov iov[2];
  FILE *fp;

  iov[0].iov_base = s;
  2002dc:	e0bff317 	ldw	r2,-52(fp)
  2002e0:	e0bff515 	stw	r2,-44(fp)
  iov[0].iov_len = c;
  2002e4:	e0bfff17 	ldw	r2,-4(fp)
  2002e8:	e0bff615 	stw	r2,-40(fp)
  iov[1].iov_base = "\n";
  2002ec:	00800834 	movhi	r2,32
  2002f0:	109f7a04 	addi	r2,r2,32232
  2002f4:	e0bff715 	stw	r2,-36(fp)
  iov[1].iov_len = 1;
  2002f8:	00800044 	movi	r2,1
  2002fc:	e0bff815 	stw	r2,-32(fp)
  uio.uio_resid = c + 1;
  200300:	e0bfff17 	ldw	r2,-4(fp)
  200304:	10800044 	addi	r2,r2,1
  200308:	e0bffb15 	stw	r2,-20(fp)
  uio.uio_iov = &iov[0];
  20030c:	e0bff504 	addi	r2,fp,-44
  200310:	e0bff915 	stw	r2,-28(fp)
  uio.uio_iovcnt = 2;
  200314:	00800084 	movi	r2,2
  200318:	e0bffa15 	stw	r2,-24(fp)

  _REENT_SMALL_CHECK_INIT (ptr);
  fp = _stdout_r (ptr);
  20031c:	e0bff417 	ldw	r2,-48(fp)
  200320:	10800217 	ldw	r2,8(r2)
  200324:	e0bffe15 	stw	r2,-8(fp)
  CHECK_INIT (ptr, fp);
  200328:	e0bff417 	ldw	r2,-48(fp)
  20032c:	e0bffd15 	stw	r2,-12(fp)
  200330:	e0bffd17 	ldw	r2,-12(fp)
  200334:	10000526 	beq	r2,zero,20034c <_puts_r+0x94>
  200338:	e0bffd17 	ldw	r2,-12(fp)
  20033c:	10800d17 	ldw	r2,52(r2)
  200340:	1000021e 	bne	r2,zero,20034c <_puts_r+0x94>
  200344:	e13ffd17 	ldw	r4,-12(fp)
  200348:	0200a0c0 	call	200a0c <__sinit>
  _newlib_flockfile_start (fp);
  ORIENT (fp, -1);
  20034c:	e0bffe17 	ldw	r2,-8(fp)
  200350:	1080030b 	ldhu	r2,12(r2)
  200354:	10bfffcc 	andi	r2,r2,65535
  200358:	1088000c 	andi	r2,r2,8192
  20035c:	10000c1e 	bne	r2,zero,200390 <_puts_r+0xd8>
  200360:	e0bffe17 	ldw	r2,-8(fp)
  200364:	1080030b 	ldhu	r2,12(r2)
  200368:	10880014 	ori	r2,r2,8192
  20036c:	1007883a 	mov	r3,r2
  200370:	e0bffe17 	ldw	r2,-8(fp)
  200374:	10c0030d 	sth	r3,12(r2)
  200378:	e0bffe17 	ldw	r2,-8(fp)
  20037c:	10c01917 	ldw	r3,100(r2)
  200380:	00b7ffc4 	movi	r2,-8193
  200384:	1886703a 	and	r3,r3,r2
  200388:	e0bffe17 	ldw	r2,-8(fp)
  20038c:	10c01915 	stw	r3,100(r2)
  result = (__sfvwrite_r (ptr, fp, &uio) ? EOF : '\n');
  200390:	e0bff904 	addi	r2,fp,-28
  200394:	100d883a 	mov	r6,r2
  200398:	e17ffe17 	ldw	r5,-8(fp)
  20039c:	e13ff417 	ldw	r4,-48(fp)
  2003a0:	0200b7c0 	call	200b7c <__sfvwrite_r>
  2003a4:	10000226 	beq	r2,zero,2003b0 <_puts_r+0xf8>
  2003a8:	00bfffc4 	movi	r2,-1
  2003ac:	00000106 	br	2003b4 <_puts_r+0xfc>
  2003b0:	00800284 	movi	r2,10
  2003b4:	e0bffc15 	stw	r2,-16(fp)
  _newlib_flockfile_end (fp);
  return result;
  2003b8:	e0bffc17 	ldw	r2,-16(fp)

err:
  _newlib_flockfile_end (fp);
  return result;
#endif
}
  2003bc:	e037883a 	mov	sp,fp
  2003c0:	dfc00117 	ldw	ra,4(sp)
  2003c4:	df000017 	ldw	fp,0(sp)
  2003c8:	dec00204 	addi	sp,sp,8
  2003cc:	f800283a 	ret

002003d0 <puts>:

#ifndef _REENT_ONLY

int
puts (char const * s)
{
  2003d0:	defffd04 	addi	sp,sp,-12
  2003d4:	dfc00215 	stw	ra,8(sp)
  2003d8:	df000115 	stw	fp,4(sp)
  2003dc:	df000104 	addi	fp,sp,4
  2003e0:	e13fff15 	stw	r4,-4(fp)
  return _puts_r (_REENT, s);
  2003e4:	d0a00017 	ldw	r2,-32768(gp)
  2003e8:	e17fff17 	ldw	r5,-4(fp)
  2003ec:	1009883a 	mov	r4,r2
  2003f0:	02002b80 	call	2002b8 <_puts_r>
}
  2003f4:	e037883a 	mov	sp,fp
  2003f8:	dfc00117 	ldw	ra,4(sp)
  2003fc:	df000017 	ldw	fp,0(sp)
  200400:	dec00204 	addi	sp,sp,8
  200404:	f800283a 	ret

00200408 <strlen>:
#error long int is not a 32bit or 64bit byte
#endif

size_t
strlen (const char *str)
{
  200408:	defffc04 	addi	sp,sp,-16
  20040c:	df000315 	stw	fp,12(sp)
  200410:	df000304 	addi	fp,sp,12
  200414:	e13ffd15 	stw	r4,-12(fp)
  const char *start = str;
  200418:	e0bffd17 	ldw	r2,-12(fp)
  20041c:	e0bffe15 	stw	r2,-8(fp)

#if !defined(PREFER_SIZE_OVER_SPEED) && !defined(__OPTIMIZE_SIZE__)
  unsigned long *aligned_addr;

  /* Align the pointer, so we can search a word at a time.  */
  while (UNALIGNED (str))
  200420:	00000d06 	br	200458 <strlen+0x50>
    {
      if (!*str)
  200424:	e0bffd17 	ldw	r2,-12(fp)
  200428:	10800003 	ldbu	r2,0(r2)
  20042c:	10803fcc 	andi	r2,r2,255
  200430:	1080201c 	xori	r2,r2,128
  200434:	10bfe004 	addi	r2,r2,-128
  200438:	1000041e 	bne	r2,zero,20044c <strlen+0x44>
	return str - start;
  20043c:	e0fffd17 	ldw	r3,-12(fp)
  200440:	e0bffe17 	ldw	r2,-8(fp)
  200444:	1885c83a 	sub	r2,r3,r2
  200448:	00002806 	br	2004ec <strlen+0xe4>
      str++;
  20044c:	e0bffd17 	ldw	r2,-12(fp)
  200450:	10800044 	addi	r2,r2,1
  200454:	e0bffd15 	stw	r2,-12(fp)
  while (UNALIGNED (str))
  200458:	e0bffd17 	ldw	r2,-12(fp)
  20045c:	108000cc 	andi	r2,r2,3
  200460:	103ff01e 	bne	r2,zero,200424 <strlen+0x1c>
    }

  /* If the string is word-aligned, we can check for the presence of
     a null in each word-sized block.  */
  aligned_addr = (unsigned long *)str;
  200464:	e0bffd17 	ldw	r2,-12(fp)
  200468:	e0bfff15 	stw	r2,-4(fp)
  while (!DETECTNULL (*aligned_addr))
  20046c:	00000306 	br	20047c <strlen+0x74>
    aligned_addr++;
  200470:	e0bfff17 	ldw	r2,-4(fp)
  200474:	10800104 	addi	r2,r2,4
  200478:	e0bfff15 	stw	r2,-4(fp)
  while (!DETECTNULL (*aligned_addr))
  20047c:	e0bfff17 	ldw	r2,-4(fp)
  200480:	10c00017 	ldw	r3,0(r2)
  200484:	00bfbff4 	movhi	r2,65279
  200488:	10bfbfc4 	addi	r2,r2,-257
  20048c:	1887883a 	add	r3,r3,r2
  200490:	e0bfff17 	ldw	r2,-4(fp)
  200494:	10800017 	ldw	r2,0(r2)
  200498:	0084303a 	nor	r2,zero,r2
  20049c:	1886703a 	and	r3,r3,r2
  2004a0:	00a02074 	movhi	r2,32897
  2004a4:	10a02004 	addi	r2,r2,-32640
  2004a8:	1884703a 	and	r2,r3,r2
  2004ac:	103ff026 	beq	r2,zero,200470 <strlen+0x68>

  /* Once a null is detected, we check each byte in that block for a
     precise position of the null.  */
  str = (char *) aligned_addr;
  2004b0:	e0bfff17 	ldw	r2,-4(fp)
  2004b4:	e0bffd15 	stw	r2,-12(fp)

#endif /* not PREFER_SIZE_OVER_SPEED */

  while (*str)
  2004b8:	00000306 	br	2004c8 <strlen+0xc0>
    str++;
  2004bc:	e0bffd17 	ldw	r2,-12(fp)
  2004c0:	10800044 	addi	r2,r2,1
  2004c4:	e0bffd15 	stw	r2,-12(fp)
  while (*str)
  2004c8:	e0bffd17 	ldw	r2,-12(fp)
  2004cc:	10800003 	ldbu	r2,0(r2)
  2004d0:	10803fcc 	andi	r2,r2,255
  2004d4:	1080201c 	xori	r2,r2,128
  2004d8:	10bfe004 	addi	r2,r2,-128
  2004dc:	103ff71e 	bne	r2,zero,2004bc <strlen+0xb4>
  return str - start;
  2004e0:	e0fffd17 	ldw	r3,-12(fp)
  2004e4:	e0bffe17 	ldw	r2,-8(fp)
  2004e8:	1885c83a 	sub	r2,r3,r2
}
  2004ec:	e037883a 	mov	sp,fp
  2004f0:	df000017 	ldw	fp,0(sp)
  2004f4:	dec00104 	addi	sp,sp,4
  2004f8:	f800283a 	ret

002004fc <std>:
static void
#endif
std (FILE *ptr,
            int flags,
            int file)
{
  2004fc:	defffb04 	addi	sp,sp,-20
  200500:	dfc00415 	stw	ra,16(sp)
  200504:	df000315 	stw	fp,12(sp)
  200508:	df000304 	addi	fp,sp,12
  20050c:	e13fff15 	stw	r4,-4(fp)
  200510:	e17ffe15 	stw	r5,-8(fp)
  200514:	e1bffd15 	stw	r6,-12(fp)
  ptr->_p = 0;
  200518:	e0bfff17 	ldw	r2,-4(fp)
  20051c:	10000015 	stw	zero,0(r2)
  ptr->_r = 0;
  200520:	e0bfff17 	ldw	r2,-4(fp)
  200524:	10000115 	stw	zero,4(r2)
  ptr->_w = 0;
  200528:	e0bfff17 	ldw	r2,-4(fp)
  20052c:	10000215 	stw	zero,8(r2)
  ptr->_flags = flags;
  200530:	e0bffe17 	ldw	r2,-8(fp)
  200534:	1007883a 	mov	r3,r2
  200538:	e0bfff17 	ldw	r2,-4(fp)
  20053c:	10c0030d 	sth	r3,12(r2)
  ptr->_flags2 = 0;
  200540:	e0bfff17 	ldw	r2,-4(fp)
  200544:	10001915 	stw	zero,100(r2)
  ptr->_file = file;
  200548:	e0bffd17 	ldw	r2,-12(fp)
  20054c:	1007883a 	mov	r3,r2
  200550:	e0bfff17 	ldw	r2,-4(fp)
  200554:	10c0038d 	sth	r3,14(r2)
  ptr->_bf._base = 0;
  200558:	e0bfff17 	ldw	r2,-4(fp)
  20055c:	10000415 	stw	zero,16(r2)
  ptr->_bf._size = 0;
  200560:	e0bfff17 	ldw	r2,-4(fp)
  200564:	10000515 	stw	zero,20(r2)
  ptr->_lbfsize = 0;
  200568:	e0bfff17 	ldw	r2,-4(fp)
  20056c:	10000615 	stw	zero,24(r2)
  memset (&ptr->_mbstate, 0, sizeof (_mbstate_t));
  200570:	e0bfff17 	ldw	r2,-4(fp)
  200574:	10801704 	addi	r2,r2,92
  200578:	01800204 	movi	r6,8
  20057c:	000b883a 	mov	r5,zero
  200580:	1009883a 	mov	r4,r2
  200584:	0201ba00 	call	201ba0 <memset>
  ptr->_cookie = ptr;
  200588:	e0bfff17 	ldw	r2,-4(fp)
  20058c:	e0ffff17 	ldw	r3,-4(fp)
  200590:	10c00715 	stw	r3,28(r2)
  ptr->_read = __sread;
  200594:	e0ffff17 	ldw	r3,-4(fp)
  200598:	00800834 	movhi	r2,32
  20059c:	10849204 	addi	r2,r2,4680
  2005a0:	18800815 	stw	r2,32(r3)
#ifndef __LARGE64_FILES
  ptr->_write = __swrite;
  2005a4:	e0ffff17 	ldw	r3,-4(fp)
  2005a8:	00800834 	movhi	r2,32
  2005ac:	1084c504 	addi	r2,r2,4884
  2005b0:	18800915 	stw	r2,36(r3)
#else /* __LARGE64_FILES */
  ptr->_write = __swrite64;
  ptr->_seek64 = __sseek64;
  ptr->_flags |= __SL64;
#endif /* __LARGE64_FILES */
  ptr->_seek = __sseek;
  2005b4:	e0ffff17 	ldw	r3,-4(fp)
  2005b8:	00800834 	movhi	r2,32
  2005bc:	1084f204 	addi	r2,r2,5064
  2005c0:	18800a15 	stw	r2,40(r3)
#ifdef _STDIO_CLOSE_PER_REENT_STD_STREAMS
  ptr->_close = __sclose;
  2005c4:	e0ffff17 	ldw	r3,-4(fp)
  2005c8:	00800834 	movhi	r2,32
  2005cc:	10851a04 	addi	r2,r2,5224
  2005d0:	18800b15 	stw	r2,44(r3)
#endif
#ifdef __SCLE
  if (__stextmode (ptr->_file))
    ptr->_flags |= __SCLE;
#endif
}
  2005d4:	0001883a 	nop
  2005d8:	e037883a 	mov	sp,fp
  2005dc:	dfc00117 	ldw	ra,4(sp)
  2005e0:	df000017 	ldw	fp,0(sp)
  2005e4:	dec00204 	addi	sp,sp,8
  2005e8:	f800283a 	ret

002005ec <stdin_init>:

static inline void
stdin_init(FILE *ptr)
{
  2005ec:	defffd04 	addi	sp,sp,-12
  2005f0:	dfc00215 	stw	ra,8(sp)
  2005f4:	df000115 	stw	fp,4(sp)
  2005f8:	df000104 	addi	fp,sp,4
  2005fc:	e13fff15 	stw	r4,-4(fp)
  std (ptr,  __SRD, 0);
  200600:	000d883a 	mov	r6,zero
  200604:	01400104 	movi	r5,4
  200608:	e13fff17 	ldw	r4,-4(fp)
  20060c:	02004fc0 	call	2004fc <std>
}
  200610:	0001883a 	nop
  200614:	e037883a 	mov	sp,fp
  200618:	dfc00117 	ldw	ra,4(sp)
  20061c:	df000017 	ldw	fp,0(sp)
  200620:	dec00204 	addi	sp,sp,8
  200624:	f800283a 	ret

00200628 <stdout_init>:

static inline void
stdout_init(FILE *ptr)
{
  200628:	defffd04 	addi	sp,sp,-12
  20062c:	dfc00215 	stw	ra,8(sp)
  200630:	df000115 	stw	fp,4(sp)
  200634:	df000104 	addi	fp,sp,4
  200638:	e13fff15 	stw	r4,-4(fp)
#ifdef HAVE_FCNTL
/*std (ptr, __SWR, 1); */
  std (ptr, __SWR | __SNBF, 1);	/* IntelSpecific: Change to have no buffering on stdout. */
#else
/*std (ptr, __SWR | __SLBF, 1); */
  std (ptr, __SWR | __SNBF, 1);	/* IntelSpecific: Change to have no buffering on stdout. */
  20063c:	01800044 	movi	r6,1
  200640:	01400284 	movi	r5,10
  200644:	e13fff17 	ldw	r4,-4(fp)
  200648:	02004fc0 	call	2004fc <std>
#endif
}
  20064c:	0001883a 	nop
  200650:	e037883a 	mov	sp,fp
  200654:	dfc00117 	ldw	ra,4(sp)
  200658:	df000017 	ldw	fp,0(sp)
  20065c:	dec00204 	addi	sp,sp,8
  200660:	f800283a 	ret

00200664 <stderr_init>:

static inline void
stderr_init(FILE *ptr)
{
  200664:	defffd04 	addi	sp,sp,-12
  200668:	dfc00215 	stw	ra,8(sp)
  20066c:	df000115 	stw	fp,4(sp)
  200670:	df000104 	addi	fp,sp,4
  200674:	e13fff15 	stw	r4,-4(fp)
  /* POSIX requires stderr to be opened for reading and writing, even
     when the underlying fd 2 is write-only.  */
  std (ptr, __SRW | __SNBF, 2);
  200678:	01800084 	movi	r6,2
  20067c:	01400484 	movi	r5,18
  200680:	e13fff17 	ldw	r4,-4(fp)
  200684:	02004fc0 	call	2004fc <std>
}
  200688:	0001883a 	nop
  20068c:	e037883a 	mov	sp,fp
  200690:	dfc00117 	ldw	ra,4(sp)
  200694:	df000017 	ldw	fp,0(sp)
  200698:	dec00204 	addi	sp,sp,8
  20069c:	f800283a 	ret

002006a0 <sfmoreglue>:
  FILE file;
};

static struct _glue *
sfmoreglue (struct _reent *d, int n)
{
  2006a0:	defffb04 	addi	sp,sp,-20
  2006a4:	dfc00415 	stw	ra,16(sp)
  2006a8:	df000315 	stw	fp,12(sp)
  2006ac:	df000304 	addi	fp,sp,12
  2006b0:	e13ffe15 	stw	r4,-8(fp)
  2006b4:	e17ffd15 	stw	r5,-12(fp)
  struct glue_with_file *g;

  g = (struct glue_with_file *)
    _malloc_r (d, sizeof (*g) + (n - 1) * sizeof (FILE));
  2006b8:	e0bffd17 	ldw	r2,-12(fp)
  2006bc:	10bfffc4 	addi	r2,r2,-1
  2006c0:	10801a24 	muli	r2,r2,104
  2006c4:	10801d04 	addi	r2,r2,116
  2006c8:	100b883a 	mov	r5,r2
  2006cc:	e13ffe17 	ldw	r4,-8(fp)
  2006d0:	0202b440 	call	202b44 <_malloc_r>
  2006d4:	e0bfff15 	stw	r2,-4(fp)
  if (g == NULL)
  2006d8:	e0bfff17 	ldw	r2,-4(fp)
  2006dc:	1000021e 	bne	r2,zero,2006e8 <sfmoreglue+0x48>
    return NULL;
  2006e0:	0005883a 	mov	r2,zero
  2006e4:	00001206 	br	200730 <sfmoreglue+0x90>
  g->glue._next = NULL;
  2006e8:	e0bfff17 	ldw	r2,-4(fp)
  2006ec:	10000015 	stw	zero,0(r2)
  g->glue._niobs = n;
  2006f0:	e0bfff17 	ldw	r2,-4(fp)
  2006f4:	e0fffd17 	ldw	r3,-12(fp)
  2006f8:	10c00115 	stw	r3,4(r2)
  g->glue._iobs = &g->file;
  2006fc:	e0bfff17 	ldw	r2,-4(fp)
  200700:	10c00304 	addi	r3,r2,12
  200704:	e0bfff17 	ldw	r2,-4(fp)
  200708:	10c00215 	stw	r3,8(r2)
  memset (&g->file, 0, n * sizeof (FILE));
  20070c:	e0bfff17 	ldw	r2,-4(fp)
  200710:	10c00304 	addi	r3,r2,12
  200714:	e0bffd17 	ldw	r2,-12(fp)
  200718:	10801a24 	muli	r2,r2,104
  20071c:	100d883a 	mov	r6,r2
  200720:	000b883a 	mov	r5,zero
  200724:	1809883a 	mov	r4,r3
  200728:	0201ba00 	call	201ba0 <memset>
  return &g->glue;
  20072c:	e0bfff17 	ldw	r2,-4(fp)
}
  200730:	e037883a 	mov	sp,fp
  200734:	dfc00117 	ldw	ra,4(sp)
  200738:	df000017 	ldw	fp,0(sp)
  20073c:	dec00204 	addi	sp,sp,8
  200740:	f800283a 	ret

00200744 <stdio_exit_handler>:

static void
stdio_exit_handler (void)
{
  200744:	defffe04 	addi	sp,sp,-8
  200748:	dfc00115 	stw	ra,4(sp)
  20074c:	df000015 	stw	fp,0(sp)
  200750:	d839883a 	mov	fp,sp
  (void) _fwalk_sglue (_GLOBAL_REENT, CLEANUP_FILE, &__sglue);
  200754:	01800834 	movhi	r6,32
  200758:	319fd104 	addi	r6,r6,32580
  20075c:	01400834 	movhi	r5,32
  200760:	2950a904 	addi	r5,r5,17060
  200764:	01000834 	movhi	r4,32
  200768:	211f8a04 	addi	r4,r4,32296
  20076c:	02011500 	call	201150 <_fwalk_sglue>
}
  200770:	0001883a 	nop
  200774:	e037883a 	mov	sp,fp
  200778:	dfc00117 	ldw	ra,4(sp)
  20077c:	df000017 	ldw	fp,0(sp)
  200780:	dec00204 	addi	sp,sp,8
  200784:	f800283a 	ret

00200788 <global_stdio_init>:

static void
global_stdio_init (void)
{
  200788:	defffe04 	addi	sp,sp,-8
  20078c:	dfc00115 	stw	ra,4(sp)
  200790:	df000015 	stw	fp,0(sp)
  200794:	d839883a 	mov	fp,sp
  if (__stdio_exit_handler == NULL) {
  200798:	d0a61b17 	ldw	r2,-26516(gp)
  20079c:	10000c1e 	bne	r2,zero,2007d0 <global_stdio_init+0x48>
    __stdio_exit_handler = stdio_exit_handler;
  2007a0:	00800834 	movhi	r2,32
  2007a4:	1081d104 	addi	r2,r2,1860
  2007a8:	d0a61b15 	stw	r2,-26516(gp)
    stdin_init (&__sf[0]);
  2007ac:	01000874 	movhi	r4,33
  2007b0:	212bb204 	addi	r4,r4,-20792
  2007b4:	02005ec0 	call	2005ec <stdin_init>
    stdout_init (&__sf[1]);
  2007b8:	01000874 	movhi	r4,33
  2007bc:	212bcc04 	addi	r4,r4,-20688
  2007c0:	02006280 	call	200628 <stdout_init>
    stderr_init (&__sf[2]);
  2007c4:	01000874 	movhi	r4,33
  2007c8:	212be604 	addi	r4,r4,-20584
  2007cc:	02006640 	call	200664 <stderr_init>
  }
}
  2007d0:	0001883a 	nop
  2007d4:	e037883a 	mov	sp,fp
  2007d8:	dfc00117 	ldw	ra,4(sp)
  2007dc:	df000017 	ldw	fp,0(sp)
  2007e0:	dec00204 	addi	sp,sp,8
  2007e4:	f800283a 	ret

002007e8 <__sfp>:
 * Find a free FILE for fopen et al.
 */

FILE *
__sfp (struct _reent *d)
{
  2007e8:	defffa04 	addi	sp,sp,-24
  2007ec:	dfc00515 	stw	ra,20(sp)
  2007f0:	df000415 	stw	fp,16(sp)
  2007f4:	df000404 	addi	fp,sp,16
  2007f8:	e13ffc15 	stw	r4,-16(fp)
  FILE *fp;
  int n;
  struct _glue *g;

  _newlib_sfp_lock_start ();
  2007fc:	0200a640 	call	200a64 <__sfp_lock_acquire>
  global_stdio_init ();
  200800:	02007880 	call	200788 <global_stdio_init>

  for (g = &__sglue;; g = g->_next)
  200804:	00800834 	movhi	r2,32
  200808:	109fd104 	addi	r2,r2,32580
  20080c:	e0bffd15 	stw	r2,-12(fp)
    {
      for (fp = g->_iobs, n = g->_niobs; --n >= 0; fp++)
  200810:	e0bffd17 	ldw	r2,-12(fp)
  200814:	10800217 	ldw	r2,8(r2)
  200818:	e0bfff15 	stw	r2,-4(fp)
  20081c:	e0bffd17 	ldw	r2,-12(fp)
  200820:	10800117 	ldw	r2,4(r2)
  200824:	e0bffe15 	stw	r2,-8(fp)
  200828:	00000906 	br	200850 <__sfp+0x68>
	if (fp->_flags == 0)
  20082c:	e0bfff17 	ldw	r2,-4(fp)
  200830:	1080030b 	ldhu	r2,12(r2)
  200834:	10bfffcc 	andi	r2,r2,65535
  200838:	10a0001c 	xori	r2,r2,32768
  20083c:	10a00004 	addi	r2,r2,-32768
  200840:	10001f26 	beq	r2,zero,2008c0 <__sfp+0xd8>
      for (fp = g->_iobs, n = g->_niobs; --n >= 0; fp++)
  200844:	e0bfff17 	ldw	r2,-4(fp)
  200848:	10801a04 	addi	r2,r2,104
  20084c:	e0bfff15 	stw	r2,-4(fp)
  200850:	e0bffe17 	ldw	r2,-8(fp)
  200854:	10bfffc4 	addi	r2,r2,-1
  200858:	e0bffe15 	stw	r2,-8(fp)
  20085c:	e0bffe17 	ldw	r2,-8(fp)
  200860:	103ff20e 	bge	r2,zero,20082c <__sfp+0x44>
	  goto found;
      if (g->_next == NULL &&
  200864:	e0bffd17 	ldw	r2,-12(fp)
  200868:	10800017 	ldw	r2,0(r2)
  20086c:	1000091e 	bne	r2,zero,200894 <__sfp+0xac>
	  (g->_next = sfmoreglue (d, NDYNAMIC)) == NULL)
  200870:	01400104 	movi	r5,4
  200874:	e13ffc17 	ldw	r4,-16(fp)
  200878:	02006a00 	call	2006a0 <sfmoreglue>
  20087c:	1007883a 	mov	r3,r2
  200880:	e0bffd17 	ldw	r2,-12(fp)
  200884:	10c00015 	stw	r3,0(r2)
  200888:	e0bffd17 	ldw	r2,-12(fp)
  20088c:	10800017 	ldw	r2,0(r2)
      if (g->_next == NULL &&
  200890:	10000426 	beq	r2,zero,2008a4 <__sfp+0xbc>
  for (g = &__sglue;; g = g->_next)
  200894:	e0bffd17 	ldw	r2,-12(fp)
  200898:	10800017 	ldw	r2,0(r2)
  20089c:	e0bffd15 	stw	r2,-12(fp)
      for (fp = g->_iobs, n = g->_niobs; --n >= 0; fp++)
  2008a0:	003fdb06 	br	200810 <__sfp+0x28>
	break;
  2008a4:	0001883a 	nop
    }
  _newlib_sfp_lock_exit ();
  2008a8:	0200a840 	call	200a84 <__sfp_lock_release>
  _REENT_ERRNO(d) = ENOMEM;
  2008ac:	e0bffc17 	ldw	r2,-16(fp)
  2008b0:	00c00304 	movi	r3,12
  2008b4:	10c00015 	stw	r3,0(r2)
  return NULL;
  2008b8:	0005883a 	mov	r2,zero
  2008bc:	00002506 	br	200954 <__sfp+0x16c>
	  goto found;
  2008c0:	0001883a 	nop

found:
  fp->_file = -1;		/* no file */
  2008c4:	e0bfff17 	ldw	r2,-4(fp)
  2008c8:	00ffffc4 	movi	r3,-1
  2008cc:	10c0038d 	sth	r3,14(r2)
  fp->_flags = 1;		/* reserve this slot; caller sets real flags */
  2008d0:	e0bfff17 	ldw	r2,-4(fp)
  2008d4:	00c00044 	movi	r3,1
  2008d8:	10c0030d 	sth	r3,12(r2)
  fp->_flags2 = 0;
  2008dc:	e0bfff17 	ldw	r2,-4(fp)
  2008e0:	10001915 	stw	zero,100(r2)
#ifndef __SINGLE_THREAD__
  __lock_init_recursive (fp->_lock);
#endif
  _newlib_sfp_lock_end ();
  2008e4:	0200a840 	call	200a84 <__sfp_lock_release>

  fp->_p = NULL;		/* no current pointer */
  2008e8:	e0bfff17 	ldw	r2,-4(fp)
  2008ec:	10000015 	stw	zero,0(r2)
  fp->_w = 0;			/* nothing to read or write */
  2008f0:	e0bfff17 	ldw	r2,-4(fp)
  2008f4:	10000215 	stw	zero,8(r2)
  fp->_r = 0;
  2008f8:	e0bfff17 	ldw	r2,-4(fp)
  2008fc:	10000115 	stw	zero,4(r2)
  fp->_bf._base = NULL;		/* no buffer */
  200900:	e0bfff17 	ldw	r2,-4(fp)
  200904:	10000415 	stw	zero,16(r2)
  fp->_bf._size = 0;
  200908:	e0bfff17 	ldw	r2,-4(fp)
  20090c:	10000515 	stw	zero,20(r2)
  fp->_lbfsize = 0;		/* not line buffered */
  200910:	e0bfff17 	ldw	r2,-4(fp)
  200914:	10000615 	stw	zero,24(r2)
  memset (&fp->_mbstate, 0, sizeof (_mbstate_t));
  200918:	e0bfff17 	ldw	r2,-4(fp)
  20091c:	10801704 	addi	r2,r2,92
  200920:	01800204 	movi	r6,8
  200924:	000b883a 	mov	r5,zero
  200928:	1009883a 	mov	r4,r2
  20092c:	0201ba00 	call	201ba0 <memset>
  /* fp->_cookie = <any>; */	/* caller sets cookie, _read/_write etc */
  fp->_ub._base = NULL;		/* no ungetc buffer */
  200930:	e0bfff17 	ldw	r2,-4(fp)
  200934:	10000c15 	stw	zero,48(r2)
  fp->_ub._size = 0;
  200938:	e0bfff17 	ldw	r2,-4(fp)
  20093c:	10000d15 	stw	zero,52(r2)
  fp->_lb._base = NULL;		/* no line buffer */
  200940:	e0bfff17 	ldw	r2,-4(fp)
  200944:	10001115 	stw	zero,68(r2)
  fp->_lb._size = 0;
  200948:	e0bfff17 	ldw	r2,-4(fp)
  20094c:	10001215 	stw	zero,72(r2)

  return fp;
  200950:	e0bfff17 	ldw	r2,-4(fp)
}
  200954:	e037883a 	mov	sp,fp
  200958:	dfc00117 	ldw	ra,4(sp)
  20095c:	df000017 	ldw	fp,0(sp)
  200960:	dec00204 	addi	sp,sp,8
  200964:	f800283a 	ret

00200968 <cleanup_stdio>:
 * The name `_cleanup' is, alas, fairly well known outside stdio.
 */

static void
cleanup_stdio (struct _reent *ptr)
{
  200968:	defffd04 	addi	sp,sp,-12
  20096c:	dfc00215 	stw	ra,8(sp)
  200970:	df000115 	stw	fp,4(sp)
  200974:	df000104 	addi	fp,sp,4
  200978:	e13fff15 	stw	r4,-4(fp)
  if (_REENT_STDIN(ptr) != &__sf[0])
  20097c:	e0bfff17 	ldw	r2,-4(fp)
  200980:	10c00117 	ldw	r3,4(r2)
  200984:	00800874 	movhi	r2,33
  200988:	10abb204 	addi	r2,r2,-20792
  20098c:	18800526 	beq	r3,r2,2009a4 <cleanup_stdio+0x3c>
    CLEANUP_FILE (ptr, _REENT_STDIN(ptr));
  200990:	e0bfff17 	ldw	r2,-4(fp)
  200994:	10800117 	ldw	r2,4(r2)
  200998:	100b883a 	mov	r5,r2
  20099c:	e13fff17 	ldw	r4,-4(fp)
  2009a0:	02042a40 	call	2042a4 <_fclose_r>
  if (_REENT_STDOUT(ptr) != &__sf[1])
  2009a4:	e0bfff17 	ldw	r2,-4(fp)
  2009a8:	10c00217 	ldw	r3,8(r2)
  2009ac:	00800874 	movhi	r2,33
  2009b0:	10abcc04 	addi	r2,r2,-20688
  2009b4:	18800526 	beq	r3,r2,2009cc <cleanup_stdio+0x64>
    CLEANUP_FILE (ptr, _REENT_STDOUT(ptr));
  2009b8:	e0bfff17 	ldw	r2,-4(fp)
  2009bc:	10800217 	ldw	r2,8(r2)
  2009c0:	100b883a 	mov	r5,r2
  2009c4:	e13fff17 	ldw	r4,-4(fp)
  2009c8:	02042a40 	call	2042a4 <_fclose_r>
  if (_REENT_STDERR(ptr) != &__sf[2])
  2009cc:	e0bfff17 	ldw	r2,-4(fp)
  2009d0:	10c00317 	ldw	r3,12(r2)
  2009d4:	00800874 	movhi	r2,33
  2009d8:	10abe604 	addi	r2,r2,-20584
  2009dc:	18800526 	beq	r3,r2,2009f4 <cleanup_stdio+0x8c>
    CLEANUP_FILE (ptr, _REENT_STDERR(ptr));
  2009e0:	e0bfff17 	ldw	r2,-4(fp)
  2009e4:	10800317 	ldw	r2,12(r2)
  2009e8:	100b883a 	mov	r5,r2
  2009ec:	e13fff17 	ldw	r4,-4(fp)
  2009f0:	02042a40 	call	2042a4 <_fclose_r>
}
  2009f4:	0001883a 	nop
  2009f8:	e037883a 	mov	sp,fp
  2009fc:	dfc00117 	ldw	ra,4(sp)
  200a00:	df000017 	ldw	fp,0(sp)
  200a04:	dec00204 	addi	sp,sp,8
  200a08:	f800283a 	ret

00200a0c <__sinit>:
 * __sinit() is called whenever stdio's internal variables must be set up.
 */

void
__sinit (struct _reent *s)
{
  200a0c:	defffd04 	addi	sp,sp,-12
  200a10:	dfc00215 	stw	ra,8(sp)
  200a14:	df000115 	stw	fp,4(sp)
  200a18:	df000104 	addi	fp,sp,4
  200a1c:	e13fff15 	stw	r4,-4(fp)
  __sfp_lock_acquire ();
  200a20:	0200a640 	call	200a64 <__sfp_lock_acquire>

  if (_REENT_CLEANUP(s))
  200a24:	e0bfff17 	ldw	r2,-4(fp)
  200a28:	10800d17 	ldw	r2,52(r2)
  200a2c:	10000226 	beq	r2,zero,200a38 <__sinit+0x2c>
    {
      __sfp_lock_release ();
  200a30:	0200a840 	call	200a84 <__sfp_lock_release>
      return;
  200a34:	00000606 	br	200a50 <__sinit+0x44>
    }

  /* make sure we clean up on exit */
  _REENT_CLEANUP(s) = cleanup_stdio;	/* conservative */
  200a38:	e0ffff17 	ldw	r3,-4(fp)
  200a3c:	00800834 	movhi	r2,32
  200a40:	10825a04 	addi	r2,r2,2408
  200a44:	18800d15 	stw	r2,52(r3)

  global_stdio_init ();
  200a48:	02007880 	call	200788 <global_stdio_init>
  __sfp_lock_release ();
  200a4c:	0200a840 	call	200a84 <__sfp_lock_release>
}
  200a50:	e037883a 	mov	sp,fp
  200a54:	dfc00117 	ldw	ra,4(sp)
  200a58:	df000017 	ldw	fp,0(sp)
  200a5c:	dec00204 	addi	sp,sp,8
  200a60:	f800283a 	ret

00200a64 <__sfp_lock_acquire>:

__LOCK_INIT_RECURSIVE(static, __sfp_recursive_mutex);

void
__sfp_lock_acquire (void)
{
  200a64:	deffff04 	addi	sp,sp,-4
  200a68:	df000015 	stw	fp,0(sp)
  200a6c:	d839883a 	mov	fp,sp
  __lock_acquire_recursive (__sfp_recursive_mutex);
}
  200a70:	0001883a 	nop
  200a74:	e037883a 	mov	sp,fp
  200a78:	df000017 	ldw	fp,0(sp)
  200a7c:	dec00104 	addi	sp,sp,4
  200a80:	f800283a 	ret

00200a84 <__sfp_lock_release>:

void
__sfp_lock_release (void)
{
  200a84:	deffff04 	addi	sp,sp,-4
  200a88:	df000015 	stw	fp,0(sp)
  200a8c:	d839883a 	mov	fp,sp
  __lock_release_recursive (__sfp_recursive_mutex);
}
  200a90:	0001883a 	nop
  200a94:	e037883a 	mov	sp,fp
  200a98:	df000017 	ldw	fp,0(sp)
  200a9c:	dec00104 	addi	sp,sp,4
  200aa0:	f800283a 	ret

00200aa4 <__fp_lock>:

/* Walkable file locking routine.  */
static int
__fp_lock (struct _reent * ptr __unused, FILE * fp)
{
  200aa4:	defffd04 	addi	sp,sp,-12
  200aa8:	df000215 	stw	fp,8(sp)
  200aac:	df000204 	addi	fp,sp,8
  200ab0:	e13fff15 	stw	r4,-4(fp)
  200ab4:	e17ffe15 	stw	r5,-8(fp)
  if (!(fp->_flags2 & __SNLK))
    _flockfile (fp);

  return 0;
  200ab8:	0005883a 	mov	r2,zero
}
  200abc:	e037883a 	mov	sp,fp
  200ac0:	df000017 	ldw	fp,0(sp)
  200ac4:	dec00104 	addi	sp,sp,4
  200ac8:	f800283a 	ret

00200acc <__fp_unlock>:

/* Walkable file unlocking routine.  */
static int
__fp_unlock (struct _reent * ptr __unused, FILE * fp)
{
  200acc:	defffd04 	addi	sp,sp,-12
  200ad0:	df000215 	stw	fp,8(sp)
  200ad4:	df000204 	addi	fp,sp,8
  200ad8:	e13fff15 	stw	r4,-4(fp)
  200adc:	e17ffe15 	stw	r5,-8(fp)
  if (!(fp->_flags2 & __SNLK))
    _funlockfile (fp);

  return 0;
  200ae0:	0005883a 	mov	r2,zero
}
  200ae4:	e037883a 	mov	sp,fp
  200ae8:	df000017 	ldw	fp,0(sp)
  200aec:	dec00104 	addi	sp,sp,4
  200af0:	f800283a 	ret

00200af4 <__fp_lock_all>:

void
__fp_lock_all (void)
{
  200af4:	defffe04 	addi	sp,sp,-8
  200af8:	dfc00115 	stw	ra,4(sp)
  200afc:	df000015 	stw	fp,0(sp)
  200b00:	d839883a 	mov	fp,sp
  __sfp_lock_acquire ();
  200b04:	0200a640 	call	200a64 <__sfp_lock_acquire>
  (void) _fwalk_sglue (NULL, __fp_lock, &__sglue);
  200b08:	01800834 	movhi	r6,32
  200b0c:	319fd104 	addi	r6,r6,32580
  200b10:	01400834 	movhi	r5,32
  200b14:	2942a904 	addi	r5,r5,2724
  200b18:	0009883a 	mov	r4,zero
  200b1c:	02011500 	call	201150 <_fwalk_sglue>
}
  200b20:	0001883a 	nop
  200b24:	e037883a 	mov	sp,fp
  200b28:	dfc00117 	ldw	ra,4(sp)
  200b2c:	df000017 	ldw	fp,0(sp)
  200b30:	dec00204 	addi	sp,sp,8
  200b34:	f800283a 	ret

00200b38 <__fp_unlock_all>:

void
__fp_unlock_all (void)
{
  200b38:	defffe04 	addi	sp,sp,-8
  200b3c:	dfc00115 	stw	ra,4(sp)
  200b40:	df000015 	stw	fp,0(sp)
  200b44:	d839883a 	mov	fp,sp
  (void) _fwalk_sglue (NULL, __fp_unlock, &__sglue);
  200b48:	01800834 	movhi	r6,32
  200b4c:	319fd104 	addi	r6,r6,32580
  200b50:	01400834 	movhi	r5,32
  200b54:	2942b304 	addi	r5,r5,2764
  200b58:	0009883a 	mov	r4,zero
  200b5c:	02011500 	call	201150 <_fwalk_sglue>
  __sfp_lock_release ();
  200b60:	0200a840 	call	200a84 <__sfp_lock_release>
}
  200b64:	0001883a 	nop
  200b68:	e037883a 	mov	sp,fp
  200b6c:	dfc00117 	ldw	ra,4(sp)
  200b70:	df000017 	ldw	fp,0(sp)
  200b74:	dec00204 	addi	sp,sp,8
  200b78:	f800283a 	ret

00200b7c <__sfvwrite_r>:

int
__sfvwrite_r (struct _reent *ptr,
       register FILE *fp,
       register struct __suio *uio)
{
  200b7c:	defff004 	addi	sp,sp,-64
  200b80:	dfc00f15 	stw	ra,60(sp)
  200b84:	df000e15 	stw	fp,56(sp)
  200b88:	dd800d15 	stw	r22,52(sp)
  200b8c:	dd400c15 	stw	r21,48(sp)
  200b90:	dd000b15 	stw	r20,44(sp)
  200b94:	dcc00a15 	stw	r19,40(sp)
  200b98:	dc800915 	stw	r18,36(sp)
  200b9c:	dc400815 	stw	r17,32(sp)
  200ba0:	dc000715 	stw	r16,28(sp)
  200ba4:	df000e04 	addi	fp,sp,56
  200ba8:	e13ff215 	stw	r4,-56(fp)
  200bac:	2821883a 	mov	r16,r5
  200bb0:	302b883a 	mov	r21,r6
  register size_t len;
  register const char *p = NULL;
  200bb4:	0027883a 	mov	r19,zero
  register struct __siov *iov;
  register _READ_WRITE_RETURN_TYPE w, s;
  char *nl;
  int nlknown, nldist;

  if ((len = uio->uio_resid) == 0)
  200bb8:	ac800217 	ldw	r18,8(r21)
  200bbc:	9000021e 	bne	r18,zero,200bc8 <__sfvwrite_r+0x4c>
    return 0;
  200bc0:	0005883a 	mov	r2,zero
  200bc4:	00015606 	br	201120 <__sfvwrite_r+0x5a4>

  /* make sure we can write */
  if (cantwrite (ptr, fp))
  200bc8:	8080030b 	ldhu	r2,12(r16)
  200bcc:	10bfffcc 	andi	r2,r2,65535
  200bd0:	1080020c 	andi	r2,r2,8
  200bd4:	10000226 	beq	r2,zero,200be0 <__sfvwrite_r+0x64>
  200bd8:	80800417 	ldw	r2,16(r16)
  200bdc:	1000061e 	bne	r2,zero,200bf8 <__sfvwrite_r+0x7c>
  200be0:	800b883a 	mov	r5,r16
  200be4:	e13ff217 	ldw	r4,-56(fp)
  200be8:	02014bc0 	call	2014bc <__swsetup_r>
  200bec:	10000226 	beq	r2,zero,200bf8 <__sfvwrite_r+0x7c>
    return EOF;
  200bf0:	00bfffc4 	movi	r2,-1
  200bf4:	00014a06 	br	201120 <__sfvwrite_r+0x5a4>

  iov = uio->uio_iov;
  200bf8:	ad000017 	ldw	r20,0(r21)
  len = 0;
  200bfc:	0025883a 	mov	r18,zero
      while (uio->uio_resid > 0);
      return 0;
    }
#endif

  if (fp->_flags & __SNBF)
  200c00:	8080030b 	ldhu	r2,12(r16)
  200c04:	10bfffcc 	andi	r2,r2,65535
  200c08:	1080008c 	andi	r2,r2,2
  200c0c:	10001f26 	beq	r2,zero,200c8c <__sfvwrite_r+0x110>
       * Unbuffered: Split buffer in the largest multiple of BUFSIZ < INT_MAX
       * as some legacy code may expect int instead of size_t.
       */
      do
	{
	  GETIOV (;);
  200c10:	00000306 	br	200c20 <__sfvwrite_r+0xa4>
  200c14:	a4c00017 	ldw	r19,0(r20)
  200c18:	a4800117 	ldw	r18,4(r20)
  200c1c:	a5000204 	addi	r20,r20,8
  200c20:	903ffc26 	beq	r18,zero,200c14 <__sfvwrite_r+0x98>
	  w = fp->_write (ptr, fp->_cookie, p,
  200c24:	82000917 	ldw	r8,36(r16)
  200c28:	81000717 	ldw	r4,28(r16)
			  MIN (len, INT_MAX - INT_MAX % BUFSIZ));
  200c2c:	9005883a 	mov	r2,r18
  200c30:	00e00034 	movhi	r3,32768
  200c34:	18ff0004 	addi	r3,r3,-1024
  200c38:	1880022e 	bgeu	r3,r2,200c44 <__sfvwrite_r+0xc8>
  200c3c:	00a00034 	movhi	r2,32768
  200c40:	10bf0004 	addi	r2,r2,-1024
	  w = fp->_write (ptr, fp->_cookie, p,
  200c44:	100f883a 	mov	r7,r2
  200c48:	980d883a 	mov	r6,r19
  200c4c:	200b883a 	mov	r5,r4
  200c50:	e13ff217 	ldw	r4,-56(fp)
  200c54:	403ee83a 	callr	r8
  200c58:	1023883a 	mov	r17,r2
	  if (w <= 0)
  200c5c:	0441270e 	bge	zero,r17,2010fc <__sfvwrite_r+0x580>
	    goto err;
	  p += w;
  200c60:	8805883a 	mov	r2,r17
  200c64:	98a7883a 	add	r19,r19,r2
	  len -= w;
  200c68:	8805883a 	mov	r2,r17
  200c6c:	90a5c83a 	sub	r18,r18,r2
	}
      while ((uio->uio_resid -= w) != 0);
  200c70:	a8800217 	ldw	r2,8(r21)
  200c74:	8807883a 	mov	r3,r17
  200c78:	10c5c83a 	sub	r2,r2,r3
  200c7c:	a8800215 	stw	r2,8(r21)
  200c80:	a8800217 	ldw	r2,8(r21)
  200c84:	103fe61e 	bne	r2,zero,200c20 <__sfvwrite_r+0xa4>
  200c88:	00011a06 	br	2010f4 <__sfvwrite_r+0x578>
    }
  else if ((fp->_flags & __SLBF) == 0)
  200c8c:	8080030b 	ldhu	r2,12(r16)
  200c90:	10bfffcc 	andi	r2,r2,65535
  200c94:	1080004c 	andi	r2,r2,1
  200c98:	1000b41e 	bne	r2,zero,200f6c <__sfvwrite_r+0x3f0>
       * we are dealing with the asprintf routines, we will
       * dynamically increase the buffer size as needed.
       */
      do
	{
	  GETIOV (;);
  200c9c:	00000306 	br	200cac <__sfvwrite_r+0x130>
  200ca0:	a4c00017 	ldw	r19,0(r20)
  200ca4:	a4800117 	ldw	r18,4(r20)
  200ca8:	a5000204 	addi	r20,r20,8
  200cac:	903ffc26 	beq	r18,zero,200ca0 <__sfvwrite_r+0x124>
	  w = fp->_w;
  200cb0:	84400217 	ldw	r17,8(r16)
	  if (fp->_flags & __SSTR)
  200cb4:	8080030b 	ldhu	r2,12(r16)
  200cb8:	10bfffcc 	andi	r2,r2,65535
  200cbc:	1080800c 	andi	r2,r2,512
  200cc0:	10006826 	beq	r2,zero,200e64 <__sfvwrite_r+0x2e8>
	    {
	      if (len >= w && fp->_flags & (__SMBF | __SOPT))
  200cc4:	8805883a 	mov	r2,r17
  200cc8:	90805436 	bltu	r18,r2,200e1c <__sfvwrite_r+0x2a0>
  200ccc:	8080030b 	ldhu	r2,12(r16)
  200cd0:	10bfffcc 	andi	r2,r2,65535
  200cd4:	1081200c 	andi	r2,r2,1152
  200cd8:	10005026 	beq	r2,zero,200e1c <__sfvwrite_r+0x2a0>
		{ /* must be asprintf family */
		  unsigned char *str;
		  int curpos = (fp->_p - fp->_bf._base);
  200cdc:	80c00017 	ldw	r3,0(r16)
  200ce0:	80800417 	ldw	r2,16(r16)
  200ce4:	1885c83a 	sub	r2,r3,r2
  200ce8:	e0bff315 	stw	r2,-52(fp)
		     than (1+sqrt(5))/2 to accomodate malloc
		     overhead. asprintf EXPECTS us to overallocate, so
		     that it can add a trailing \0 without
		     reallocating.  The new allocation should thus be
		     max(prev_size*1.5, curpos+len+1). */
		  int newsize = fp->_bf._size * 3 / 2;
  200cec:	80800517 	ldw	r2,20(r16)
  200cf0:	108000e4 	muli	r2,r2,3
  200cf4:	1006d7fa 	srli	r3,r2,31
  200cf8:	1885883a 	add	r2,r3,r2
  200cfc:	1005d07a 	srai	r2,r2,1
  200d00:	e0bff515 	stw	r2,-44(fp)
		  if (newsize < curpos + len + 1)
  200d04:	e0bff317 	ldw	r2,-52(fp)
  200d08:	9085883a 	add	r2,r18,r2
  200d0c:	10800044 	addi	r2,r2,1
  200d10:	e0fff517 	ldw	r3,-44(fp)
  200d14:	1880042e 	bgeu	r3,r2,200d28 <__sfvwrite_r+0x1ac>
		    newsize = curpos + len + 1;
  200d18:	e0bff317 	ldw	r2,-52(fp)
  200d1c:	9085883a 	add	r2,r18,r2
  200d20:	10800044 	addi	r2,r2,1
  200d24:	e0bff515 	stw	r2,-44(fp)
		  if (fp->_flags & __SOPT)
  200d28:	8080030b 	ldhu	r2,12(r16)
  200d2c:	10bfffcc 	andi	r2,r2,65535
  200d30:	1081000c 	andi	r2,r2,1024
  200d34:	10001726 	beq	r2,zero,200d94 <__sfvwrite_r+0x218>
		    {
		      /* asnprintf leaves original buffer alone.  */
		      str = (unsigned char *)_malloc_r (ptr, newsize);
  200d38:	e0bff517 	ldw	r2,-44(fp)
  200d3c:	100b883a 	mov	r5,r2
  200d40:	e13ff217 	ldw	r4,-56(fp)
  200d44:	0202b440 	call	202b44 <_malloc_r>
  200d48:	e0bff615 	stw	r2,-40(fp)
		      if (!str)
  200d4c:	e0bff617 	ldw	r2,-40(fp)
  200d50:	1000041e 	bne	r2,zero,200d64 <__sfvwrite_r+0x1e8>
			{
			  _REENT_ERRNO(ptr) = ENOMEM;
  200d54:	e0bff217 	ldw	r2,-56(fp)
  200d58:	00c00304 	movi	r3,12
  200d5c:	10c00015 	stw	r3,0(r2)
			  goto err;
  200d60:	0000eb06 	br	201110 <__sfvwrite_r+0x594>
			}
		      memcpy (str, fp->_bf._base, curpos);
  200d64:	80800417 	ldw	r2,16(r16)
  200d68:	e0fff317 	ldw	r3,-52(fp)
  200d6c:	180d883a 	mov	r6,r3
  200d70:	100b883a 	mov	r5,r2
  200d74:	e13ff617 	ldw	r4,-40(fp)
  200d78:	02018100 	call	201810 <memcpy>
		      fp->_flags = (fp->_flags & ~__SOPT) | __SMBF;
  200d7c:	80c0030b 	ldhu	r3,12(r16)
  200d80:	00bedfc4 	movi	r2,-1153
  200d84:	1884703a 	and	r2,r3,r2
  200d88:	10802014 	ori	r2,r2,128
  200d8c:	8080030d 	sth	r2,12(r16)
  200d90:	00001506 	br	200de8 <__sfvwrite_r+0x26c>
		    }
		  else
		    {
		      str = (unsigned char *)_realloc_r (ptr, fp->_bf._base,
  200d94:	80800417 	ldw	r2,16(r16)
  200d98:	e0fff517 	ldw	r3,-44(fp)
  200d9c:	180d883a 	mov	r6,r3
  200da0:	100b883a 	mov	r5,r2
  200da4:	e13ff217 	ldw	r4,-56(fp)
  200da8:	02036b00 	call	2036b0 <_realloc_r>
  200dac:	e0bff615 	stw	r2,-40(fp)
							 newsize);
		      if (!str)
  200db0:	e0bff617 	ldw	r2,-40(fp)
  200db4:	10000c1e 	bne	r2,zero,200de8 <__sfvwrite_r+0x26c>
			{
			  /* Free buffer which is no longer used and clear
			     __SMBF flag to avoid double free in fclose.  */
			  _free_r (ptr, fp->_bf._base);
  200db8:	80800417 	ldw	r2,16(r16)
  200dbc:	100b883a 	mov	r5,r2
  200dc0:	e13ff217 	ldw	r4,-56(fp)
  200dc4:	02020680 	call	202068 <_free_r>
			  fp->_flags &=  ~__SMBF;
  200dc8:	80c0030b 	ldhu	r3,12(r16)
  200dcc:	00bfdfc4 	movi	r2,-129
  200dd0:	1884703a 	and	r2,r3,r2
  200dd4:	8080030d 	sth	r2,12(r16)
			  /* Ensure correct errno, even if free changed it.  */
			  _REENT_ERRNO(ptr) = ENOMEM;
  200dd8:	e0bff217 	ldw	r2,-56(fp)
  200ddc:	00c00304 	movi	r3,12
  200de0:	10c00015 	stw	r3,0(r2)
			  goto err;
  200de4:	0000ca06 	br	201110 <__sfvwrite_r+0x594>
			}
		    }
		  fp->_bf._base = str;
  200de8:	e0bff617 	ldw	r2,-40(fp)
  200dec:	80800415 	stw	r2,16(r16)
		  fp->_p = str + curpos;
  200df0:	e0bff317 	ldw	r2,-52(fp)
  200df4:	e0fff617 	ldw	r3,-40(fp)
  200df8:	1885883a 	add	r2,r3,r2
  200dfc:	80800015 	stw	r2,0(r16)
		  fp->_bf._size = newsize;
  200e00:	e0bff517 	ldw	r2,-44(fp)
  200e04:	80800515 	stw	r2,20(r16)
		  w = len;
  200e08:	9023883a 	mov	r17,r18
		  fp->_w = newsize - curpos;
  200e0c:	e0fff517 	ldw	r3,-44(fp)
  200e10:	e0bff317 	ldw	r2,-52(fp)
  200e14:	1885c83a 	sub	r2,r3,r2
  200e18:	80800215 	stw	r2,8(r16)
		}
	      if (len < w)
  200e1c:	8805883a 	mov	r2,r17
  200e20:	9080012e 	bgeu	r18,r2,200e28 <__sfvwrite_r+0x2ac>
		w = len;
  200e24:	9023883a 	mov	r17,r18
	      COPY (w);		/* copy MIN(fp->_w,len), */
  200e28:	80800017 	ldw	r2,0(r16)
  200e2c:	8807883a 	mov	r3,r17
  200e30:	180d883a 	mov	r6,r3
  200e34:	980b883a 	mov	r5,r19
  200e38:	1009883a 	mov	r4,r2
  200e3c:	02019980 	call	201998 <memmove>
	      fp->_w -= w;
  200e40:	80800217 	ldw	r2,8(r16)
  200e44:	1445c83a 	sub	r2,r2,r17
  200e48:	80800215 	stw	r2,8(r16)
	      fp->_p += w;
  200e4c:	80800017 	ldw	r2,0(r16)
  200e50:	8807883a 	mov	r3,r17
  200e54:	10c5883a 	add	r2,r2,r3
  200e58:	80800015 	stw	r2,0(r16)
	      w = len;		/* but pretend copied all */
  200e5c:	9023883a 	mov	r17,r18
  200e60:	00003706 	br	200f40 <__sfvwrite_r+0x3c4>
	    }
	  else if (fp->_p > fp->_bf._base || len < fp->_bf._size)
  200e64:	80800017 	ldw	r2,0(r16)
  200e68:	80c00417 	ldw	r3,16(r16)
  200e6c:	18800236 	bltu	r3,r2,200e78 <__sfvwrite_r+0x2fc>
  200e70:	80800517 	ldw	r2,20(r16)
  200e74:	9080192e 	bgeu	r18,r2,200edc <__sfvwrite_r+0x360>
	    {
	      /* pass through the buffer */
	      w = MIN (len, w);
  200e78:	8807883a 	mov	r3,r17
  200e7c:	9005883a 	mov	r2,r18
  200e80:	1880012e 	bgeu	r3,r2,200e88 <__sfvwrite_r+0x30c>
  200e84:	1805883a 	mov	r2,r3
  200e88:	1023883a 	mov	r17,r2
	      COPY (w);
  200e8c:	80800017 	ldw	r2,0(r16)
  200e90:	8807883a 	mov	r3,r17
  200e94:	180d883a 	mov	r6,r3
  200e98:	980b883a 	mov	r5,r19
  200e9c:	1009883a 	mov	r4,r2
  200ea0:	02019980 	call	201998 <memmove>
	      fp->_w -= w;
  200ea4:	80800217 	ldw	r2,8(r16)
  200ea8:	1445c83a 	sub	r2,r2,r17
  200eac:	80800215 	stw	r2,8(r16)
	      fp->_p += w;
  200eb0:	80800017 	ldw	r2,0(r16)
  200eb4:	8807883a 	mov	r3,r17
  200eb8:	10c5883a 	add	r2,r2,r3
  200ebc:	80800015 	stw	r2,0(r16)
	      if (fp->_w == 0 && _fflush_r (ptr, fp))
  200ec0:	80800217 	ldw	r2,8(r16)
  200ec4:	10001d1e 	bne	r2,zero,200f3c <__sfvwrite_r+0x3c0>
  200ec8:	800b883a 	mov	r5,r16
  200ecc:	e13ff217 	ldw	r4,-56(fp)
  200ed0:	02047040 	call	204704 <_fflush_r>
  200ed4:	10001926 	beq	r2,zero,200f3c <__sfvwrite_r+0x3c0>
		goto err;
  200ed8:	00008d06 	br	201110 <__sfvwrite_r+0x594>
	    }
	  else
	    {
	      /* write directly */
	      w = ((int)MIN (len, INT_MAX)) / fp->_bf._size * fp->_bf._size;
  200edc:	00a00034 	movhi	r2,32768
  200ee0:	10bfff84 	addi	r2,r2,-2
  200ee4:	14800236 	bltu	r2,r18,200ef0 <__sfvwrite_r+0x374>
  200ee8:	9005883a 	mov	r2,r18
  200eec:	00000206 	br	200ef8 <__sfvwrite_r+0x37c>
  200ef0:	00a00034 	movhi	r2,32768
  200ef4:	10bfffc4 	addi	r2,r2,-1
  200ef8:	80c00517 	ldw	r3,20(r16)
  200efc:	180b883a 	mov	r5,r3
  200f00:	1009883a 	mov	r4,r2
  200f04:	0204d1c0 	call	204d1c <__divsi3>
  200f08:	1007883a 	mov	r3,r2
  200f0c:	80800517 	ldw	r2,20(r16)
  200f10:	18a3383a 	mul	r17,r3,r2
	      w = fp->_write (ptr, fp->_cookie, p, w);
  200f14:	80800917 	ldw	r2,36(r16)
  200f18:	80c00717 	ldw	r3,28(r16)
  200f1c:	880f883a 	mov	r7,r17
  200f20:	980d883a 	mov	r6,r19
  200f24:	180b883a 	mov	r5,r3
  200f28:	e13ff217 	ldw	r4,-56(fp)
  200f2c:	103ee83a 	callr	r2
  200f30:	1023883a 	mov	r17,r2
	      if (w <= 0)
  200f34:	0440730e 	bge	zero,r17,201104 <__sfvwrite_r+0x588>
  200f38:	00000106 	br	200f40 <__sfvwrite_r+0x3c4>
	      if (fp->_w == 0 && _fflush_r (ptr, fp))
  200f3c:	0001883a 	nop
		goto err;
	    }
	  p += w;
  200f40:	8805883a 	mov	r2,r17
  200f44:	98a7883a 	add	r19,r19,r2
	  len -= w;
  200f48:	8805883a 	mov	r2,r17
  200f4c:	90a5c83a 	sub	r18,r18,r2
	}
      while ((uio->uio_resid -= w) != 0);
  200f50:	a8800217 	ldw	r2,8(r21)
  200f54:	8807883a 	mov	r3,r17
  200f58:	10c5c83a 	sub	r2,r2,r3
  200f5c:	a8800215 	stw	r2,8(r21)
  200f60:	a8800217 	ldw	r2,8(r21)
  200f64:	103f511e 	bne	r2,zero,200cac <__sfvwrite_r+0x130>
  200f68:	00006206 	br	2010f4 <__sfvwrite_r+0x578>
       * must check for newlines.  Compute the distance
       * to the first newline (including the newline),
       * or `infinity' if there is none, then pretend
       * that the amount to write is MIN(len,nldist).
       */
      nlknown = 0;
  200f6c:	e03ff815 	stw	zero,-32(fp)
      nldist = 0;
  200f70:	e03ff715 	stw	zero,-36(fp)
      do
	{
	  GETIOV (nlknown = 0);
  200f74:	00000406 	br	200f88 <__sfvwrite_r+0x40c>
  200f78:	e03ff815 	stw	zero,-32(fp)
  200f7c:	a4c00017 	ldw	r19,0(r20)
  200f80:	a4800117 	ldw	r18,4(r20)
  200f84:	a5000204 	addi	r20,r20,8
  200f88:	903ffb26 	beq	r18,zero,200f78 <__sfvwrite_r+0x3fc>
	  if (!nlknown)
  200f8c:	e0bff817 	ldw	r2,-32(fp)
  200f90:	10000f1e 	bne	r2,zero,200fd0 <__sfvwrite_r+0x454>
	    {
	      nl = memchr ((void *) p, '\n', len);
  200f94:	900d883a 	mov	r6,r18
  200f98:	01400284 	movi	r5,10
  200f9c:	9809883a 	mov	r4,r19
  200fa0:	020165c0 	call	20165c <memchr>
  200fa4:	e0bff415 	stw	r2,-48(fp)
	      nldist = nl ? nl + 1 - p : len + 1;
  200fa8:	e0bff417 	ldw	r2,-48(fp)
  200fac:	10000426 	beq	r2,zero,200fc0 <__sfvwrite_r+0x444>
  200fb0:	e0bff417 	ldw	r2,-48(fp)
  200fb4:	10800044 	addi	r2,r2,1
  200fb8:	14c5c83a 	sub	r2,r2,r19
  200fbc:	00000106 	br	200fc4 <__sfvwrite_r+0x448>
  200fc0:	90800044 	addi	r2,r18,1
  200fc4:	e0bff715 	stw	r2,-36(fp)
	      nlknown = 1;
  200fc8:	00800044 	movi	r2,1
  200fcc:	e0bff815 	stw	r2,-32(fp)
	    }
	  s = MIN (len, nldist);
  200fd0:	e0fff717 	ldw	r3,-36(fp)
  200fd4:	9005883a 	mov	r2,r18
  200fd8:	1880012e 	bgeu	r3,r2,200fe0 <__sfvwrite_r+0x464>
  200fdc:	1805883a 	mov	r2,r3
  200fe0:	102d883a 	mov	r22,r2
	  w = fp->_w + fp->_bf._size;
  200fe4:	80c00217 	ldw	r3,8(r16)
  200fe8:	80800517 	ldw	r2,20(r16)
  200fec:	18a3883a 	add	r17,r3,r2
	  if (fp->_p > fp->_bf._base && s > w)
  200ff0:	80800017 	ldw	r2,0(r16)
  200ff4:	80c00417 	ldw	r3,16(r16)
  200ff8:	1880102e 	bgeu	r3,r2,20103c <__sfvwrite_r+0x4c0>
  200ffc:	8d800f0e 	bge	r17,r22,20103c <__sfvwrite_r+0x4c0>
	    {
	      COPY (w);
  201000:	80800017 	ldw	r2,0(r16)
  201004:	8807883a 	mov	r3,r17
  201008:	180d883a 	mov	r6,r3
  20100c:	980b883a 	mov	r5,r19
  201010:	1009883a 	mov	r4,r2
  201014:	02019980 	call	201998 <memmove>
	      /* fp->_w -= w; */
	      fp->_p += w;
  201018:	80800017 	ldw	r2,0(r16)
  20101c:	8807883a 	mov	r3,r17
  201020:	10c5883a 	add	r2,r2,r3
  201024:	80800015 	stw	r2,0(r16)
	      if (_fflush_r (ptr, fp))
  201028:	800b883a 	mov	r5,r16
  20102c:	e13ff217 	ldw	r4,-56(fp)
  201030:	02047040 	call	204704 <_fflush_r>
  201034:	10001b26 	beq	r2,zero,2010a4 <__sfvwrite_r+0x528>
		goto err;
  201038:	00003506 	br	201110 <__sfvwrite_r+0x594>
	    }
	  else if (s >= (w = fp->_bf._size))
  20103c:	84400517 	ldw	r17,20(r16)
  201040:	b4400a16 	blt	r22,r17,20106c <__sfvwrite_r+0x4f0>
	    {
	      w = fp->_write (ptr, fp->_cookie, p, w);
  201044:	80800917 	ldw	r2,36(r16)
  201048:	80c00717 	ldw	r3,28(r16)
  20104c:	880f883a 	mov	r7,r17
  201050:	980d883a 	mov	r6,r19
  201054:	180b883a 	mov	r5,r3
  201058:	e13ff217 	ldw	r4,-56(fp)
  20105c:	103ee83a 	callr	r2
  201060:	1023883a 	mov	r17,r2
	      if (w <= 0)
  201064:	04400f16 	blt	zero,r17,2010a4 <__sfvwrite_r+0x528>
		goto err;
  201068:	00002906 	br	201110 <__sfvwrite_r+0x594>
	    }
	  else
	    {
	      w = s;
  20106c:	b023883a 	mov	r17,r22
	      COPY (w);
  201070:	80800017 	ldw	r2,0(r16)
  201074:	8807883a 	mov	r3,r17
  201078:	180d883a 	mov	r6,r3
  20107c:	980b883a 	mov	r5,r19
  201080:	1009883a 	mov	r4,r2
  201084:	02019980 	call	201998 <memmove>
	      fp->_w -= w;
  201088:	80800217 	ldw	r2,8(r16)
  20108c:	1445c83a 	sub	r2,r2,r17
  201090:	80800215 	stw	r2,8(r16)
	      fp->_p += w;
  201094:	80800017 	ldw	r2,0(r16)
  201098:	8807883a 	mov	r3,r17
  20109c:	10c5883a 	add	r2,r2,r3
  2010a0:	80800015 	stw	r2,0(r16)
	    }
	  if ((nldist -= w) == 0)
  2010a4:	e0bff717 	ldw	r2,-36(fp)
  2010a8:	1445c83a 	sub	r2,r2,r17
  2010ac:	e0bff715 	stw	r2,-36(fp)
  2010b0:	e0bff717 	ldw	r2,-36(fp)
  2010b4:	1000051e 	bne	r2,zero,2010cc <__sfvwrite_r+0x550>
	    {
	      /* copied the newline: flush and forget */
	      if (_fflush_r (ptr, fp))
  2010b8:	800b883a 	mov	r5,r16
  2010bc:	e13ff217 	ldw	r4,-56(fp)
  2010c0:	02047040 	call	204704 <_fflush_r>
  2010c4:	1000111e 	bne	r2,zero,20110c <__sfvwrite_r+0x590>
		goto err;
	      nlknown = 0;
  2010c8:	e03ff815 	stw	zero,-32(fp)
	    }
	  p += w;
  2010cc:	8805883a 	mov	r2,r17
  2010d0:	98a7883a 	add	r19,r19,r2
	  len -= w;
  2010d4:	8805883a 	mov	r2,r17
  2010d8:	90a5c83a 	sub	r18,r18,r2
	}
      while ((uio->uio_resid -= w) != 0);
  2010dc:	a8800217 	ldw	r2,8(r21)
  2010e0:	8807883a 	mov	r3,r17
  2010e4:	10c5c83a 	sub	r2,r2,r3
  2010e8:	a8800215 	stw	r2,8(r21)
  2010ec:	a8800217 	ldw	r2,8(r21)
  2010f0:	103fa51e 	bne	r2,zero,200f88 <__sfvwrite_r+0x40c>
    }
  return 0;
  2010f4:	0005883a 	mov	r2,zero
  2010f8:	00000906 	br	201120 <__sfvwrite_r+0x5a4>
	    goto err;
  2010fc:	0001883a 	nop
  201100:	00000306 	br	201110 <__sfvwrite_r+0x594>
		goto err;
  201104:	0001883a 	nop
  201108:	00000106 	br	201110 <__sfvwrite_r+0x594>
		goto err;
  20110c:	0001883a 	nop

err:
  fp->_flags |= __SERR;
  201110:	8080030b 	ldhu	r2,12(r16)
  201114:	10801014 	ori	r2,r2,64
  201118:	8080030d 	sth	r2,12(r16)
  return EOF;
  20111c:	00bfffc4 	movi	r2,-1
}
  201120:	e6fff904 	addi	sp,fp,-28
  201124:	dfc00817 	ldw	ra,32(sp)
  201128:	df000717 	ldw	fp,28(sp)
  20112c:	dd800617 	ldw	r22,24(sp)
  201130:	dd400517 	ldw	r21,20(sp)
  201134:	dd000417 	ldw	r20,16(sp)
  201138:	dcc00317 	ldw	r19,12(sp)
  20113c:	dc800217 	ldw	r18,8(sp)
  201140:	dc400117 	ldw	r17,4(sp)
  201144:	dc000017 	ldw	r16,0(sp)
  201148:	dec00904 	addi	sp,sp,36
  20114c:	f800283a 	ret

00201150 <_fwalk_sglue>:
#include <errno.h>

int
_fwalk_sglue (struct _reent *ptr, int (*func) (struct _reent *, FILE *),
    struct _glue *g)
{
  201150:	defff804 	addi	sp,sp,-32
  201154:	dfc00715 	stw	ra,28(sp)
  201158:	df000615 	stw	fp,24(sp)
  20115c:	df000604 	addi	fp,sp,24
  201160:	e13ffc15 	stw	r4,-16(fp)
  201164:	e17ffb15 	stw	r5,-20(fp)
  201168:	e1bffa15 	stw	r6,-24(fp)
  FILE *fp;
  int n, ret = 0;
  20116c:	e03ffd15 	stw	zero,-12(fp)
   *
   * Avoid locking this list while walking it or else you will
   * introduce a potential deadlock in [at least] refill.c.
   */
  do {
    for (fp = g->_iobs, n = g->_niobs; --n >= 0; fp++)
  201170:	e0bffa17 	ldw	r2,-24(fp)
  201174:	10800217 	ldw	r2,8(r2)
  201178:	e0bfff15 	stw	r2,-4(fp)
  20117c:	e0bffa17 	ldw	r2,-24(fp)
  201180:	10800117 	ldw	r2,4(r2)
  201184:	e0bffe15 	stw	r2,-8(fp)
  201188:	00001f06 	br	201208 <_fwalk_sglue+0xb8>
      if (fp->_flags != 0 && fp->_flags != 1 && fp->_file != -1)
  20118c:	e0bfff17 	ldw	r2,-4(fp)
  201190:	1080030b 	ldhu	r2,12(r2)
  201194:	10bfffcc 	andi	r2,r2,65535
  201198:	10a0001c 	xori	r2,r2,32768
  20119c:	10a00004 	addi	r2,r2,-32768
  2011a0:	10001626 	beq	r2,zero,2011fc <_fwalk_sglue+0xac>
  2011a4:	e0bfff17 	ldw	r2,-4(fp)
  2011a8:	1080030b 	ldhu	r2,12(r2)
  2011ac:	10bfffcc 	andi	r2,r2,65535
  2011b0:	10a0001c 	xori	r2,r2,32768
  2011b4:	10a00004 	addi	r2,r2,-32768
  2011b8:	10800060 	cmpeqi	r2,r2,1
  2011bc:	10000f1e 	bne	r2,zero,2011fc <_fwalk_sglue+0xac>
  2011c0:	e0bfff17 	ldw	r2,-4(fp)
  2011c4:	1080038b 	ldhu	r2,14(r2)
  2011c8:	10bfffcc 	andi	r2,r2,65535
  2011cc:	10a0001c 	xori	r2,r2,32768
  2011d0:	10a00004 	addi	r2,r2,-32768
  2011d4:	10bfffe0 	cmpeqi	r2,r2,-1
  2011d8:	1000081e 	bne	r2,zero,2011fc <_fwalk_sglue+0xac>
	ret |= (*func) (ptr, fp);
  2011dc:	e0bffb17 	ldw	r2,-20(fp)
  2011e0:	e17fff17 	ldw	r5,-4(fp)
  2011e4:	e13ffc17 	ldw	r4,-16(fp)
  2011e8:	103ee83a 	callr	r2
  2011ec:	1007883a 	mov	r3,r2
  2011f0:	e0bffd17 	ldw	r2,-12(fp)
  2011f4:	10c4b03a 	or	r2,r2,r3
  2011f8:	e0bffd15 	stw	r2,-12(fp)
    for (fp = g->_iobs, n = g->_niobs; --n >= 0; fp++)
  2011fc:	e0bfff17 	ldw	r2,-4(fp)
  201200:	10801a04 	addi	r2,r2,104
  201204:	e0bfff15 	stw	r2,-4(fp)
  201208:	e0bffe17 	ldw	r2,-8(fp)
  20120c:	10bfffc4 	addi	r2,r2,-1
  201210:	e0bffe15 	stw	r2,-8(fp)
  201214:	e0bffe17 	ldw	r2,-8(fp)
  201218:	103fdc0e 	bge	r2,zero,20118c <_fwalk_sglue+0x3c>
    g = g->_next;
  20121c:	e0bffa17 	ldw	r2,-24(fp)
  201220:	10800017 	ldw	r2,0(r2)
  201224:	e0bffa15 	stw	r2,-24(fp)
  } while (g != NULL);
  201228:	e0bffa17 	ldw	r2,-24(fp)
  20122c:	103fd01e 	bne	r2,zero,201170 <_fwalk_sglue+0x20>

  return ret;
  201230:	e0bffd17 	ldw	r2,-12(fp)
}
  201234:	e037883a 	mov	sp,fp
  201238:	dfc00117 	ldw	ra,4(sp)
  20123c:	df000017 	ldw	fp,0(sp)
  201240:	dec00204 	addi	sp,sp,8
  201244:	f800283a 	ret

00201248 <__sread>:
_READ_WRITE_RETURN_TYPE
__sread (struct _reent *ptr,
       void *cookie,
       char *buf,
       _READ_WRITE_BUFSIZE_TYPE n)
{
  201248:	defff804 	addi	sp,sp,-32
  20124c:	dfc00715 	stw	ra,28(sp)
  201250:	df000615 	stw	fp,24(sp)
  201254:	dc400515 	stw	r17,20(sp)
  201258:	dc000415 	stw	r16,16(sp)
  20125c:	df000604 	addi	fp,sp,24
  201260:	e13ffd15 	stw	r4,-12(fp)
  201264:	e17ffc15 	stw	r5,-16(fp)
  201268:	e1bffb15 	stw	r6,-20(fp)
  20126c:	e1fffa15 	stw	r7,-24(fp)
  register FILE *fp = (FILE *) cookie;
  201270:	e43ffc17 	ldw	r16,-16(fp)
  int oldmode = 0;
  if (fp->_flags & __SCLE)
    oldmode = setmode (fp->_file, O_BINARY);
#endif

  ret = _read_r (ptr, fp->_file, buf, n);
  201274:	8080038b 	ldhu	r2,14(r16)
  201278:	10bfffcc 	andi	r2,r2,65535
  20127c:	10a0001c 	xori	r2,r2,32768
  201280:	10a00004 	addi	r2,r2,-32768
  201284:	e0fffa17 	ldw	r3,-24(fp)
  201288:	180f883a 	mov	r7,r3
  20128c:	e1bffb17 	ldw	r6,-20(fp)
  201290:	100b883a 	mov	r5,r2
  201294:	e13ffd17 	ldw	r4,-12(fp)
  201298:	0201f500 	call	201f50 <_read_r>
  20129c:	1023883a 	mov	r17,r2
    setmode (fp->_file, oldmode);
#endif

  /* If the read succeeded, update the current offset.  */

  if (ret >= 0)
  2012a0:	88000416 	blt	r17,zero,2012b4 <__sread+0x6c>
    fp->_offset += ret;
  2012a4:	80801417 	ldw	r2,80(r16)
  2012a8:	8885883a 	add	r2,r17,r2
  2012ac:	80801415 	stw	r2,80(r16)
  2012b0:	00000406 	br	2012c4 <__sread+0x7c>
  else
    fp->_flags &= ~__SOFF;	/* paranoia */
  2012b4:	80c0030b 	ldhu	r3,12(r16)
  2012b8:	00bbffc4 	movi	r2,-4097
  2012bc:	1884703a 	and	r2,r3,r2
  2012c0:	8080030d 	sth	r2,12(r16)
  return ret;
  2012c4:	8805883a 	mov	r2,r17
}
  2012c8:	e6fffe04 	addi	sp,fp,-8
  2012cc:	dfc00317 	ldw	ra,12(sp)
  2012d0:	df000217 	ldw	fp,8(sp)
  2012d4:	dc400117 	ldw	r17,4(sp)
  2012d8:	dc000017 	ldw	r16,0(sp)
  2012dc:	dec00404 	addi	sp,sp,16
  2012e0:	f800283a 	ret

002012e4 <__seofread>:
_READ_WRITE_RETURN_TYPE
__seofread (struct _reent *_ptr,
       void *cookie,
       char *buf,
       _READ_WRITE_BUFSIZE_TYPE len)
{
  2012e4:	defffb04 	addi	sp,sp,-20
  2012e8:	df000415 	stw	fp,16(sp)
  2012ec:	df000404 	addi	fp,sp,16
  2012f0:	e13fff15 	stw	r4,-4(fp)
  2012f4:	e17ffe15 	stw	r5,-8(fp)
  2012f8:	e1bffd15 	stw	r6,-12(fp)
  2012fc:	e1fffc15 	stw	r7,-16(fp)
  return 0;
  201300:	0005883a 	mov	r2,zero
}
  201304:	e037883a 	mov	sp,fp
  201308:	df000017 	ldw	fp,0(sp)
  20130c:	dec00104 	addi	sp,sp,4
  201310:	f800283a 	ret

00201314 <__swrite>:
_READ_WRITE_RETURN_TYPE
__swrite (struct _reent *ptr,
       void *cookie,
       char const *buf,
       _READ_WRITE_BUFSIZE_TYPE n)
{
  201314:	defff804 	addi	sp,sp,-32
  201318:	dfc00715 	stw	ra,28(sp)
  20131c:	df000615 	stw	fp,24(sp)
  201320:	dc000515 	stw	r16,20(sp)
  201324:	df000604 	addi	fp,sp,24
  201328:	e13ffd15 	stw	r4,-12(fp)
  20132c:	e17ffc15 	stw	r5,-16(fp)
  201330:	e1bffb15 	stw	r6,-20(fp)
  201334:	e1fffa15 	stw	r7,-24(fp)
  register FILE *fp = (FILE *) cookie;
  201338:	e43ffc17 	ldw	r16,-16(fp)
  ssize_t w;
#ifdef __SCLE
  int oldmode=0;
#endif

  if (fp->_flags & __SAPP)
  20133c:	8080030b 	ldhu	r2,12(r16)
  201340:	10bfffcc 	andi	r2,r2,65535
  201344:	1080400c 	andi	r2,r2,256
  201348:	10000926 	beq	r2,zero,201370 <__swrite+0x5c>
    _lseek_r (ptr, fp->_file, (_off_t) 0, SEEK_END);
  20134c:	8080038b 	ldhu	r2,14(r16)
  201350:	10bfffcc 	andi	r2,r2,65535
  201354:	10a0001c 	xori	r2,r2,32768
  201358:	10a00004 	addi	r2,r2,-32768
  20135c:	01c00084 	movi	r7,2
  201360:	000d883a 	mov	r6,zero
  201364:	100b883a 	mov	r5,r2
  201368:	e13ffd17 	ldw	r4,-12(fp)
  20136c:	0201ee00 	call	201ee0 <_lseek_r>
  fp->_flags &= ~__SOFF;	/* in case O_APPEND mode is set */
  201370:	80c0030b 	ldhu	r3,12(r16)
  201374:	00bbffc4 	movi	r2,-4097
  201378:	1884703a 	and	r2,r3,r2
  20137c:	8080030d 	sth	r2,12(r16)
#ifdef __SCLE
  if (fp->_flags & __SCLE)
    oldmode = setmode (fp->_file, O_BINARY);
#endif

  w = _write_r (ptr, fp->_file, buf, n);
  201380:	8080038b 	ldhu	r2,14(r16)
  201384:	10bfffcc 	andi	r2,r2,65535
  201388:	10a0001c 	xori	r2,r2,32768
  20138c:	10a00004 	addi	r2,r2,-32768
  201390:	e0fffa17 	ldw	r3,-24(fp)
  201394:	180f883a 	mov	r7,r3
  201398:	e1bffb17 	ldw	r6,-20(fp)
  20139c:	100b883a 	mov	r5,r2
  2013a0:	e13ffd17 	ldw	r4,-12(fp)
  2013a4:	0201fc00 	call	201fc0 <_write_r>
  2013a8:	e0bffe15 	stw	r2,-8(fp)
#ifdef __SCLE
  if (oldmode)
    setmode (fp->_file, oldmode);
#endif

  return w;
  2013ac:	e0bffe17 	ldw	r2,-8(fp)
}
  2013b0:	e6ffff04 	addi	sp,fp,-4
  2013b4:	dfc00217 	ldw	ra,8(sp)
  2013b8:	df000117 	ldw	fp,4(sp)
  2013bc:	dc000017 	ldw	r16,0(sp)
  2013c0:	dec00304 	addi	sp,sp,12
  2013c4:	f800283a 	ret

002013c8 <__sseek>:
_fpos_t
__sseek (struct _reent *ptr,
       void *cookie,
       _fpos_t offset,
       int whence)
{
  2013c8:	defff804 	addi	sp,sp,-32
  2013cc:	dfc00715 	stw	ra,28(sp)
  2013d0:	df000615 	stw	fp,24(sp)
  2013d4:	dc400515 	stw	r17,20(sp)
  2013d8:	dc000415 	stw	r16,16(sp)
  2013dc:	df000604 	addi	fp,sp,24
  2013e0:	e13ffd15 	stw	r4,-12(fp)
  2013e4:	e17ffc15 	stw	r5,-16(fp)
  2013e8:	e1bffb15 	stw	r6,-20(fp)
  2013ec:	e1fffa15 	stw	r7,-24(fp)
  register FILE *fp = (FILE *) cookie;
  2013f0:	e43ffc17 	ldw	r16,-16(fp)
  register _off_t ret;

  ret = _lseek_r (ptr, fp->_file, (_off_t) offset, whence);
  2013f4:	8080038b 	ldhu	r2,14(r16)
  2013f8:	10bfffcc 	andi	r2,r2,65535
  2013fc:	10a0001c 	xori	r2,r2,32768
  201400:	10a00004 	addi	r2,r2,-32768
  201404:	e1fffa17 	ldw	r7,-24(fp)
  201408:	e1bffb17 	ldw	r6,-20(fp)
  20140c:	100b883a 	mov	r5,r2
  201410:	e13ffd17 	ldw	r4,-12(fp)
  201414:	0201ee00 	call	201ee0 <_lseek_r>
  201418:	1023883a 	mov	r17,r2
  if (ret == -1L)
  20141c:	88bfffd8 	cmpnei	r2,r17,-1
  201420:	1000051e 	bne	r2,zero,201438 <__sseek+0x70>
    fp->_flags &= ~__SOFF;
  201424:	80c0030b 	ldhu	r3,12(r16)
  201428:	00bbffc4 	movi	r2,-4097
  20142c:	1884703a 	and	r2,r3,r2
  201430:	8080030d 	sth	r2,12(r16)
  201434:	00000406 	br	201448 <__sseek+0x80>
  else
    {
      fp->_flags |= __SOFF;
  201438:	8080030b 	ldhu	r2,12(r16)
  20143c:	10840014 	ori	r2,r2,4096
  201440:	8080030d 	sth	r2,12(r16)
      fp->_offset = ret;
  201444:	84401415 	stw	r17,80(r16)
    }
  return ret;
  201448:	8805883a 	mov	r2,r17
}
  20144c:	e6fffe04 	addi	sp,fp,-8
  201450:	dfc00317 	ldw	ra,12(sp)
  201454:	df000217 	ldw	fp,8(sp)
  201458:	dc400117 	ldw	r17,4(sp)
  20145c:	dc000017 	ldw	r16,0(sp)
  201460:	dec00404 	addi	sp,sp,16
  201464:	f800283a 	ret

00201468 <__sclose>:

int
__sclose (struct _reent *ptr,
       void *cookie)
{
  201468:	defffb04 	addi	sp,sp,-20
  20146c:	dfc00415 	stw	ra,16(sp)
  201470:	df000315 	stw	fp,12(sp)
  201474:	df000304 	addi	fp,sp,12
  201478:	e13ffe15 	stw	r4,-8(fp)
  20147c:	e17ffd15 	stw	r5,-12(fp)
  FILE *fp = (FILE *) cookie;
  201480:	e0bffd17 	ldw	r2,-12(fp)
  201484:	e0bfff15 	stw	r2,-4(fp)

  return _close_r (ptr, fp->_file);
  201488:	e0bfff17 	ldw	r2,-4(fp)
  20148c:	1080038b 	ldhu	r2,14(r2)
  201490:	10bfffcc 	andi	r2,r2,65535
  201494:	10a0001c 	xori	r2,r2,32768
  201498:	10a00004 	addi	r2,r2,-32768
  20149c:	100b883a 	mov	r5,r2
  2014a0:	e13ffe17 	ldw	r4,-8(fp)
  2014a4:	0201d640 	call	201d64 <_close_r>
}
  2014a8:	e037883a 	mov	sp,fp
  2014ac:	dfc00117 	ldw	ra,4(sp)
  2014b0:	df000017 	ldw	fp,0(sp)
  2014b4:	dec00204 	addi	sp,sp,8
  2014b8:	f800283a 	ret

002014bc <__swsetup_r>:
 */

int
__swsetup_r (struct _reent *ptr,
       register FILE * fp)
{
  2014bc:	defffb04 	addi	sp,sp,-20
  2014c0:	dfc00415 	stw	ra,16(sp)
  2014c4:	df000315 	stw	fp,12(sp)
  2014c8:	dc000215 	stw	r16,8(sp)
  2014cc:	df000304 	addi	fp,sp,12
  2014d0:	e13ffd15 	stw	r4,-12(fp)
  2014d4:	2821883a 	mov	r16,r5
  /* Make sure stdio is set up.  */

  CHECK_INIT (_REENT, fp);
  2014d8:	d0a00017 	ldw	r2,-32768(gp)
  2014dc:	e0bffe15 	stw	r2,-8(fp)
  2014e0:	e0bffe17 	ldw	r2,-8(fp)
  2014e4:	10000526 	beq	r2,zero,2014fc <__swsetup_r+0x40>
  2014e8:	e0bffe17 	ldw	r2,-8(fp)
  2014ec:	10800d17 	ldw	r2,52(r2)
  2014f0:	1000021e 	bne	r2,zero,2014fc <__swsetup_r+0x40>
  2014f4:	e13ffe17 	ldw	r4,-8(fp)
  2014f8:	0200a0c0 	call	200a0c <__sinit>

  /*
   * If we are not writing, we had better be reading and writing.
   */

  if ((fp->_flags & __SWR) == 0)
  2014fc:	8080030b 	ldhu	r2,12(r16)
  201500:	10bfffcc 	andi	r2,r2,65535
  201504:	1080020c 	andi	r2,r2,8
  201508:	1000241e 	bne	r2,zero,20159c <__swsetup_r+0xe0>
    {
      if ((fp->_flags & __SRW) == 0)
  20150c:	8080030b 	ldhu	r2,12(r16)
  201510:	10bfffcc 	andi	r2,r2,65535
  201514:	1080040c 	andi	r2,r2,16
  201518:	1000081e 	bne	r2,zero,20153c <__swsetup_r+0x80>
        {
	  _REENT_ERRNO(ptr) = EBADF;
  20151c:	e0bffd17 	ldw	r2,-12(fp)
  201520:	00c00244 	movi	r3,9
  201524:	10c00015 	stw	r3,0(r2)
	  fp->_flags |= __SERR;
  201528:	8080030b 	ldhu	r2,12(r16)
  20152c:	10801014 	ori	r2,r2,64
  201530:	8080030d 	sth	r2,12(r16)
	  return EOF;
  201534:	00bfffc4 	movi	r2,-1
  201538:	00004206 	br	201644 <__swsetup_r+0x188>
        }
      if (fp->_flags & __SRD)
  20153c:	8080030b 	ldhu	r2,12(r16)
  201540:	10bfffcc 	andi	r2,r2,65535
  201544:	1080010c 	andi	r2,r2,4
  201548:	10001126 	beq	r2,zero,201590 <__swsetup_r+0xd4>
	{
	  /* clobber any ungetc data */
	  if (HASUB (fp))
  20154c:	80800c17 	ldw	r2,48(r16)
  201550:	10000826 	beq	r2,zero,201574 <__swsetup_r+0xb8>
	    FREEUB (ptr, fp);
  201554:	80c00c17 	ldw	r3,48(r16)
  201558:	80801004 	addi	r2,r16,64
  20155c:	18800426 	beq	r3,r2,201570 <__swsetup_r+0xb4>
  201560:	80800c17 	ldw	r2,48(r16)
  201564:	100b883a 	mov	r5,r2
  201568:	e13ffd17 	ldw	r4,-12(fp)
  20156c:	02020680 	call	202068 <_free_r>
  201570:	80000c15 	stw	zero,48(r16)
	  fp->_flags &= ~(__SRD | __SEOF);
  201574:	80c0030b 	ldhu	r3,12(r16)
  201578:	00bff6c4 	movi	r2,-37
  20157c:	1884703a 	and	r2,r3,r2
  201580:	8080030d 	sth	r2,12(r16)
	  fp->_r = 0;
  201584:	80000115 	stw	zero,4(r16)
	  fp->_p = fp->_bf._base;
  201588:	80800417 	ldw	r2,16(r16)
  20158c:	80800015 	stw	r2,0(r16)
	}
      fp->_flags |= __SWR;
  201590:	8080030b 	ldhu	r2,12(r16)
  201594:	10800214 	ori	r2,r2,8
  201598:	8080030d 	sth	r2,12(r16)
  /*
   * Make a buffer if necessary, then set _w.
   * A string I/O file should not explicitly allocate a buffer
   * unless asprintf is being used.
   */
  if (fp->_bf._base == NULL
  20159c:	80800417 	ldw	r2,16(r16)
  2015a0:	10000b1e 	bne	r2,zero,2015d0 <__swsetup_r+0x114>
        && (!(fp->_flags & __SSTR) || (fp->_flags & __SMBF)))
  2015a4:	8080030b 	ldhu	r2,12(r16)
  2015a8:	10bfffcc 	andi	r2,r2,65535
  2015ac:	1080800c 	andi	r2,r2,512
  2015b0:	10000426 	beq	r2,zero,2015c4 <__swsetup_r+0x108>
  2015b4:	8080030b 	ldhu	r2,12(r16)
  2015b8:	10bfffcc 	andi	r2,r2,65535
  2015bc:	1080200c 	andi	r2,r2,128
  2015c0:	10000326 	beq	r2,zero,2015d0 <__swsetup_r+0x114>
    __smakebuf_r (ptr, fp);
  2015c4:	800b883a 	mov	r5,r16
  2015c8:	e13ffd17 	ldw	r4,-12(fp)
  2015cc:	02047e80 	call	2047e8 <__smakebuf_r>

  if (fp->_flags & __SLBF)
  2015d0:	8080030b 	ldhu	r2,12(r16)
  2015d4:	10bfffcc 	andi	r2,r2,65535
  2015d8:	1080004c 	andi	r2,r2,1
  2015dc:	10000526 	beq	r2,zero,2015f4 <__swsetup_r+0x138>
      /*
       * It is line buffered, so make _lbfsize be -_bufsize
       * for the putc() macro.  We will change _lbfsize back
       * to 0 whenever we turn off __SWR.
       */
      fp->_w = 0;
  2015e0:	80000215 	stw	zero,8(r16)
      fp->_lbfsize = -fp->_bf._size;
  2015e4:	80800517 	ldw	r2,20(r16)
  2015e8:	0085c83a 	sub	r2,zero,r2
  2015ec:	80800615 	stw	r2,24(r16)
  2015f0:	00000806 	br	201614 <__swsetup_r+0x158>
    }
  else
    fp->_w = fp->_flags & __SNBF ? 0 : fp->_bf._size;
  2015f4:	8080030b 	ldhu	r2,12(r16)
  2015f8:	10bfffcc 	andi	r2,r2,65535
  2015fc:	1080008c 	andi	r2,r2,2
  201600:	1000021e 	bne	r2,zero,20160c <__swsetup_r+0x150>
  201604:	80800517 	ldw	r2,20(r16)
  201608:	00000106 	br	201610 <__swsetup_r+0x154>
  20160c:	0005883a 	mov	r2,zero
  201610:	80800215 	stw	r2,8(r16)

  if (!fp->_bf._base && (fp->_flags & __SMBF))
  201614:	80800417 	ldw	r2,16(r16)
  201618:	1000091e 	bne	r2,zero,201640 <__swsetup_r+0x184>
  20161c:	8080030b 	ldhu	r2,12(r16)
  201620:	10bfffcc 	andi	r2,r2,65535
  201624:	1080200c 	andi	r2,r2,128
  201628:	10000526 	beq	r2,zero,201640 <__swsetup_r+0x184>
    {
      /* __smakebuf_r set errno, but not flag */
      fp->_flags |= __SERR;
  20162c:	8080030b 	ldhu	r2,12(r16)
  201630:	10801014 	ori	r2,r2,64
  201634:	8080030d 	sth	r2,12(r16)
      return EOF;
  201638:	00bfffc4 	movi	r2,-1
  20163c:	00000106 	br	201644 <__swsetup_r+0x188>
    }
  return 0;
  201640:	0005883a 	mov	r2,zero
}
  201644:	e6ffff04 	addi	sp,fp,-4
  201648:	dfc00217 	ldw	ra,8(sp)
  20164c:	df000117 	ldw	fp,4(sp)
  201650:	dc000017 	ldw	r16,0(sp)
  201654:	dec00304 	addi	sp,sp,12
  201658:	f800283a 	ret

0020165c <memchr>:

void *
memchr (const void *src_void,
	int c,
	size_t length)
{
  20165c:	defff704 	addi	sp,sp,-36
  201660:	df000815 	stw	fp,32(sp)
  201664:	df000804 	addi	fp,sp,32
  201668:	e13ffa15 	stw	r4,-24(fp)
  20166c:	e17ff915 	stw	r5,-28(fp)
  201670:	e1bff815 	stw	r6,-32(fp)
  const unsigned char *src = (const unsigned char *) src_void;
  201674:	e0bffa17 	ldw	r2,-24(fp)
  201678:	e0bfff15 	stw	r2,-4(fp)
  unsigned char d = c;
  20167c:	e0bff917 	ldw	r2,-28(fp)
  201680:	e0bffbc5 	stb	r2,-17(fp)
#if !defined(PREFER_SIZE_OVER_SPEED) && !defined(__OPTIMIZE_SIZE__)
  unsigned long *asrc;
  unsigned long  mask;
  unsigned int i;

  while (UNALIGNED (src))
  201684:	00001006 	br	2016c8 <memchr+0x6c>
    {
      if (!length--)
  201688:	e0bff817 	ldw	r2,-32(fp)
  20168c:	10ffffc4 	addi	r3,r2,-1
  201690:	e0fff815 	stw	r3,-32(fp)
  201694:	1000021e 	bne	r2,zero,2016a0 <memchr+0x44>
        return NULL;
  201698:	0005883a 	mov	r2,zero
  20169c:	00005806 	br	201800 <memchr+0x1a4>
      if (*src == d)
  2016a0:	e0bfff17 	ldw	r2,-4(fp)
  2016a4:	10800003 	ldbu	r2,0(r2)
  2016a8:	e0fffbc3 	ldbu	r3,-17(fp)
  2016ac:	10803fcc 	andi	r2,r2,255
  2016b0:	1880021e 	bne	r3,r2,2016bc <memchr+0x60>
        return (void *) src;
  2016b4:	e0bfff17 	ldw	r2,-4(fp)
  2016b8:	00005106 	br	201800 <memchr+0x1a4>
      src++;
  2016bc:	e0bfff17 	ldw	r2,-4(fp)
  2016c0:	10800044 	addi	r2,r2,1
  2016c4:	e0bfff15 	stw	r2,-4(fp)
  while (UNALIGNED (src))
  2016c8:	e0bfff17 	ldw	r2,-4(fp)
  2016cc:	108000cc 	andi	r2,r2,3
  2016d0:	103fed1e 	bne	r2,zero,201688 <memchr+0x2c>
    }

  if (!TOO_SMALL (length))
  2016d4:	e0bff817 	ldw	r2,-32(fp)
  2016d8:	10800130 	cmpltui	r2,r2,4
  2016dc:	1000431e 	bne	r2,zero,2017ec <memchr+0x190>
         performs the bytewise search on word-sized segments if they
         contain the search character, which is detected by XORing
         the word-sized segment with a word-sized block of the search
         character and then detecting for the presence of NUL in the
         result.  */
      asrc = (unsigned long *) src;
  2016e0:	e0bfff17 	ldw	r2,-4(fp)
  2016e4:	e0bffe15 	stw	r2,-8(fp)
      mask = d << 8 | d;
  2016e8:	e0bffbc3 	ldbu	r2,-17(fp)
  2016ec:	10804064 	muli	r2,r2,257
  2016f0:	e0bffd15 	stw	r2,-12(fp)
      mask = mask << 16 | mask;
  2016f4:	e0bffd17 	ldw	r2,-12(fp)
  2016f8:	1004943a 	slli	r2,r2,16
  2016fc:	e0fffd17 	ldw	r3,-12(fp)
  201700:	1884b03a 	or	r2,r3,r2
  201704:	e0bffd15 	stw	r2,-12(fp)
      for (i = 32; i < LBLOCKSIZE * 8; i <<= 1)
  201708:	00800804 	movi	r2,32
  20170c:	e0bffc15 	stw	r2,-16(fp)
  201710:	00000906 	br	201738 <memchr+0xdc>
        mask = (mask << i) | mask;
  201714:	e0fffd17 	ldw	r3,-12(fp)
  201718:	e0bffc17 	ldw	r2,-16(fp)
  20171c:	1884983a 	sll	r2,r3,r2
  201720:	e0fffd17 	ldw	r3,-12(fp)
  201724:	1884b03a 	or	r2,r3,r2
  201728:	e0bffd15 	stw	r2,-12(fp)
      for (i = 32; i < LBLOCKSIZE * 8; i <<= 1)
  20172c:	e0bffc17 	ldw	r2,-16(fp)
  201730:	1085883a 	add	r2,r2,r2
  201734:	e0bffc15 	stw	r2,-16(fp)
  201738:	e0bffc17 	ldw	r2,-16(fp)
  20173c:	10800830 	cmpltui	r2,r2,32
  201740:	103ff41e 	bne	r2,zero,201714 <memchr+0xb8>

      while (length >= LBLOCKSIZE)
  201744:	00001706 	br	2017a4 <memchr+0x148>
        {
          if (DETECTCHAR (*asrc, mask))
  201748:	e0bffe17 	ldw	r2,-8(fp)
  20174c:	10c00017 	ldw	r3,0(r2)
  201750:	e0bffd17 	ldw	r2,-12(fp)
  201754:	1886f03a 	xor	r3,r3,r2
  201758:	00bfbff4 	movhi	r2,65279
  20175c:	10bfbfc4 	addi	r2,r2,-257
  201760:	1887883a 	add	r3,r3,r2
  201764:	e0bffe17 	ldw	r2,-8(fp)
  201768:	11000017 	ldw	r4,0(r2)
  20176c:	e0bffd17 	ldw	r2,-12(fp)
  201770:	2084f03a 	xor	r2,r4,r2
  201774:	0084303a 	nor	r2,zero,r2
  201778:	1886703a 	and	r3,r3,r2
  20177c:	00a02074 	movhi	r2,32897
  201780:	10a02004 	addi	r2,r2,-32640
  201784:	1884703a 	and	r2,r3,r2
  201788:	10000a1e 	bne	r2,zero,2017b4 <memchr+0x158>
            break;
          length -= LBLOCKSIZE;
  20178c:	e0bff817 	ldw	r2,-32(fp)
  201790:	10bfff04 	addi	r2,r2,-4
  201794:	e0bff815 	stw	r2,-32(fp)
          asrc++;
  201798:	e0bffe17 	ldw	r2,-8(fp)
  20179c:	10800104 	addi	r2,r2,4
  2017a0:	e0bffe15 	stw	r2,-8(fp)
      while (length >= LBLOCKSIZE)
  2017a4:	e0bff817 	ldw	r2,-32(fp)
  2017a8:	10800128 	cmpgeui	r2,r2,4
  2017ac:	103fe61e 	bne	r2,zero,201748 <memchr+0xec>
  2017b0:	00000106 	br	2017b8 <memchr+0x15c>
            break;
  2017b4:	0001883a 	nop
        }

      /* If there are fewer than LBLOCKSIZE characters left,
         then we resort to the bytewise loop.  */

      src = (unsigned char *) asrc;
  2017b8:	e0bffe17 	ldw	r2,-8(fp)
  2017bc:	e0bfff15 	stw	r2,-4(fp)
    }

#endif /* not PREFER_SIZE_OVER_SPEED */

  while (length--)
  2017c0:	00000a06 	br	2017ec <memchr+0x190>
    {
      if (*src == d)
  2017c4:	e0bfff17 	ldw	r2,-4(fp)
  2017c8:	10800003 	ldbu	r2,0(r2)
  2017cc:	e0fffbc3 	ldbu	r3,-17(fp)
  2017d0:	10803fcc 	andi	r2,r2,255
  2017d4:	1880021e 	bne	r3,r2,2017e0 <memchr+0x184>
        return (void *) src;
  2017d8:	e0bfff17 	ldw	r2,-4(fp)
  2017dc:	00000806 	br	201800 <memchr+0x1a4>
      src++;
  2017e0:	e0bfff17 	ldw	r2,-4(fp)
  2017e4:	10800044 	addi	r2,r2,1
  2017e8:	e0bfff15 	stw	r2,-4(fp)
  while (length--)
  2017ec:	e0bff817 	ldw	r2,-32(fp)
  2017f0:	10ffffc4 	addi	r3,r2,-1
  2017f4:	e0fff815 	stw	r3,-32(fp)
  2017f8:	103ff21e 	bne	r2,zero,2017c4 <memchr+0x168>
    }

  return NULL;
  2017fc:	0005883a 	mov	r2,zero
}
  201800:	e037883a 	mov	sp,fp
  201804:	df000017 	ldw	fp,0(sp)
  201808:	dec00104 	addi	sp,sp,4
  20180c:	f800283a 	ret

00201810 <memcpy>:
void *
__inhibit_loop_to_libcall
memcpy (void *__restrict dst0,
	const void *__restrict src0,
	size_t len0)
{
  201810:	defff804 	addi	sp,sp,-32
  201814:	df000715 	stw	fp,28(sp)
  201818:	df000704 	addi	fp,sp,28
  20181c:	e13ffb15 	stw	r4,-20(fp)
  201820:	e17ffa15 	stw	r5,-24(fp)
  201824:	e1bff915 	stw	r6,-28(fp)
      *dst++ = *src++;
    }

  return save;
#else
  char *dst = dst0;
  201828:	e0bffb17 	ldw	r2,-20(fp)
  20182c:	e0bfff15 	stw	r2,-4(fp)
  const char *src = src0;
  201830:	e0bffa17 	ldw	r2,-24(fp)
  201834:	e0bffe15 	stw	r2,-8(fp)
  long *aligned_dst;
  const long *aligned_src;

  /* If the size is small, or either SRC or DST is unaligned,
     then punt into the byte copy loop.  This should be rare.  */
  if (!TOO_SMALL(len0) && !UNALIGNED (src, dst))
  201838:	e0bff917 	ldw	r2,-28(fp)
  20183c:	10800430 	cmpltui	r2,r2,16
  201840:	10004c1e 	bne	r2,zero,201974 <memcpy+0x164>
  201844:	e0fffe17 	ldw	r3,-8(fp)
  201848:	e0bfff17 	ldw	r2,-4(fp)
  20184c:	1884b03a 	or	r2,r3,r2
  201850:	108000cc 	andi	r2,r2,3
  201854:	1000471e 	bne	r2,zero,201974 <memcpy+0x164>
    {
      aligned_dst = (long*)dst;
  201858:	e0bfff17 	ldw	r2,-4(fp)
  20185c:	e0bffd15 	stw	r2,-12(fp)
      aligned_src = (long*)src;
  201860:	e0bffe17 	ldw	r2,-8(fp)
  201864:	e0bffc15 	stw	r2,-16(fp)

      /* Copy 4X long words at a time if possible.  */
      while (len0 >= BIGBLOCKSIZE)
  201868:	00002306 	br	2018f8 <memcpy+0xe8>
        {
          *aligned_dst++ = *aligned_src++;
  20186c:	e0fffc17 	ldw	r3,-16(fp)
  201870:	18800104 	addi	r2,r3,4
  201874:	e0bffc15 	stw	r2,-16(fp)
  201878:	e0bffd17 	ldw	r2,-12(fp)
  20187c:	11000104 	addi	r4,r2,4
  201880:	e13ffd15 	stw	r4,-12(fp)
  201884:	18c00017 	ldw	r3,0(r3)
  201888:	10c00015 	stw	r3,0(r2)
          *aligned_dst++ = *aligned_src++;
  20188c:	e0fffc17 	ldw	r3,-16(fp)
  201890:	18800104 	addi	r2,r3,4
  201894:	e0bffc15 	stw	r2,-16(fp)
  201898:	e0bffd17 	ldw	r2,-12(fp)
  20189c:	11000104 	addi	r4,r2,4
  2018a0:	e13ffd15 	stw	r4,-12(fp)
  2018a4:	18c00017 	ldw	r3,0(r3)
  2018a8:	10c00015 	stw	r3,0(r2)
          *aligned_dst++ = *aligned_src++;
  2018ac:	e0fffc17 	ldw	r3,-16(fp)
  2018b0:	18800104 	addi	r2,r3,4
  2018b4:	e0bffc15 	stw	r2,-16(fp)
  2018b8:	e0bffd17 	ldw	r2,-12(fp)
  2018bc:	11000104 	addi	r4,r2,4
  2018c0:	e13ffd15 	stw	r4,-12(fp)
  2018c4:	18c00017 	ldw	r3,0(r3)
  2018c8:	10c00015 	stw	r3,0(r2)
          *aligned_dst++ = *aligned_src++;
  2018cc:	e0fffc17 	ldw	r3,-16(fp)
  2018d0:	18800104 	addi	r2,r3,4
  2018d4:	e0bffc15 	stw	r2,-16(fp)
  2018d8:	e0bffd17 	ldw	r2,-12(fp)
  2018dc:	11000104 	addi	r4,r2,4
  2018e0:	e13ffd15 	stw	r4,-12(fp)
  2018e4:	18c00017 	ldw	r3,0(r3)
  2018e8:	10c00015 	stw	r3,0(r2)
          len0 -= BIGBLOCKSIZE;
  2018ec:	e0bff917 	ldw	r2,-28(fp)
  2018f0:	10bffc04 	addi	r2,r2,-16
  2018f4:	e0bff915 	stw	r2,-28(fp)
      while (len0 >= BIGBLOCKSIZE)
  2018f8:	e0bff917 	ldw	r2,-28(fp)
  2018fc:	10800428 	cmpgeui	r2,r2,16
  201900:	103fda1e 	bne	r2,zero,20186c <memcpy+0x5c>
        }

      /* Copy one long word at a time if possible.  */
      while (len0 >= LITTLEBLOCKSIZE)
  201904:	00000b06 	br	201934 <memcpy+0x124>
        {
          *aligned_dst++ = *aligned_src++;
  201908:	e0fffc17 	ldw	r3,-16(fp)
  20190c:	18800104 	addi	r2,r3,4
  201910:	e0bffc15 	stw	r2,-16(fp)
  201914:	e0bffd17 	ldw	r2,-12(fp)
  201918:	11000104 	addi	r4,r2,4
  20191c:	e13ffd15 	stw	r4,-12(fp)
  201920:	18c00017 	ldw	r3,0(r3)
  201924:	10c00015 	stw	r3,0(r2)
          len0 -= LITTLEBLOCKSIZE;
  201928:	e0bff917 	ldw	r2,-28(fp)
  20192c:	10bfff04 	addi	r2,r2,-4
  201930:	e0bff915 	stw	r2,-28(fp)
      while (len0 >= LITTLEBLOCKSIZE)
  201934:	e0bff917 	ldw	r2,-28(fp)
  201938:	10800128 	cmpgeui	r2,r2,4
  20193c:	103ff21e 	bne	r2,zero,201908 <memcpy+0xf8>
        }

       /* Pick up any residual with a byte copier.  */
      dst = (char*)aligned_dst;
  201940:	e0bffd17 	ldw	r2,-12(fp)
  201944:	e0bfff15 	stw	r2,-4(fp)
      src = (char*)aligned_src;
  201948:	e0bffc17 	ldw	r2,-16(fp)
  20194c:	e0bffe15 	stw	r2,-8(fp)
    }

  while (len0--)
  201950:	00000806 	br	201974 <memcpy+0x164>
    *dst++ = *src++;
  201954:	e0fffe17 	ldw	r3,-8(fp)
  201958:	18800044 	addi	r2,r3,1
  20195c:	e0bffe15 	stw	r2,-8(fp)
  201960:	e0bfff17 	ldw	r2,-4(fp)
  201964:	11000044 	addi	r4,r2,1
  201968:	e13fff15 	stw	r4,-4(fp)
  20196c:	18c00003 	ldbu	r3,0(r3)
  201970:	10c00005 	stb	r3,0(r2)
  while (len0--)
  201974:	e0bff917 	ldw	r2,-28(fp)
  201978:	10ffffc4 	addi	r3,r2,-1
  20197c:	e0fff915 	stw	r3,-28(fp)
  201980:	103ff41e 	bne	r2,zero,201954 <memcpy+0x144>

  return dst0;
  201984:	e0bffb17 	ldw	r2,-20(fp)
#endif /* not PREFER_SIZE_OVER_SPEED */
}
  201988:	e037883a 	mov	sp,fp
  20198c:	df000017 	ldw	fp,0(sp)
  201990:	dec00104 	addi	sp,sp,4
  201994:	f800283a 	ret

00201998 <memmove>:
void *
__inhibit_loop_to_libcall
memmove (void *dst_void,
	const void *src_void,
	size_t length)
{
  201998:	defff804 	addi	sp,sp,-32
  20199c:	df000715 	stw	fp,28(sp)
  2019a0:	df000704 	addi	fp,sp,28
  2019a4:	e13ffb15 	stw	r4,-20(fp)
  2019a8:	e17ffa15 	stw	r5,-24(fp)
  2019ac:	e1bff915 	stw	r6,-28(fp)
	}
    }

  return dst_void;
#else
  char *dst = dst_void;
  2019b0:	e0bffb17 	ldw	r2,-20(fp)
  2019b4:	e0bfff15 	stw	r2,-4(fp)
  const char *src = src_void;
  2019b8:	e0bffa17 	ldw	r2,-24(fp)
  2019bc:	e0bffe15 	stw	r2,-8(fp)
  long *aligned_dst;
  const long *aligned_src;

  if (src < dst && dst < src + length)
  2019c0:	e0fffe17 	ldw	r3,-8(fp)
  2019c4:	e0bfff17 	ldw	r2,-4(fp)
  2019c8:	18801d2e 	bgeu	r3,r2,201a40 <memmove+0xa8>
  2019cc:	e0fffe17 	ldw	r3,-8(fp)
  2019d0:	e0bff917 	ldw	r2,-28(fp)
  2019d4:	1885883a 	add	r2,r3,r2
  2019d8:	e0ffff17 	ldw	r3,-4(fp)
  2019dc:	1880182e 	bgeu	r3,r2,201a40 <memmove+0xa8>
    {
      /* Destructive overlap...have to copy backwards */
      src += length;
  2019e0:	e0fffe17 	ldw	r3,-8(fp)
  2019e4:	e0bff917 	ldw	r2,-28(fp)
  2019e8:	1885883a 	add	r2,r3,r2
  2019ec:	e0bffe15 	stw	r2,-8(fp)
      dst += length;
  2019f0:	e0ffff17 	ldw	r3,-4(fp)
  2019f4:	e0bff917 	ldw	r2,-28(fp)
  2019f8:	1885883a 	add	r2,r3,r2
  2019fc:	e0bfff15 	stw	r2,-4(fp)
      while (length--)
  201a00:	00000a06 	br	201a2c <memmove+0x94>
	{
	  *--dst = *--src;
  201a04:	e0bffe17 	ldw	r2,-8(fp)
  201a08:	10bfffc4 	addi	r2,r2,-1
  201a0c:	e0bffe15 	stw	r2,-8(fp)
  201a10:	e0bfff17 	ldw	r2,-4(fp)
  201a14:	10bfffc4 	addi	r2,r2,-1
  201a18:	e0bfff15 	stw	r2,-4(fp)
  201a1c:	e0bffe17 	ldw	r2,-8(fp)
  201a20:	10c00003 	ldbu	r3,0(r2)
  201a24:	e0bfff17 	ldw	r2,-4(fp)
  201a28:	10c00005 	stb	r3,0(r2)
      while (length--)
  201a2c:	e0bff917 	ldw	r2,-28(fp)
  201a30:	10ffffc4 	addi	r3,r2,-1
  201a34:	e0fff915 	stw	r3,-28(fp)
  201a38:	103ff21e 	bne	r2,zero,201a04 <memmove+0x6c>
  if (src < dst && dst < src + length)
  201a3c:	00005306 	br	201b8c <memmove+0x1f4>
  else
    {
      /* Use optimizing algorithm for a non-destructive copy to closely 
         match memcpy. If the size is small or either SRC or DST is unaligned,
         then punt into the byte copy loop.  This should be rare.  */
      if (!TOO_SMALL(length) && !UNALIGNED (src, dst))
  201a40:	e0bff917 	ldw	r2,-28(fp)
  201a44:	10800430 	cmpltui	r2,r2,16
  201a48:	10004c1e 	bne	r2,zero,201b7c <memmove+0x1e4>
  201a4c:	e0fffe17 	ldw	r3,-8(fp)
  201a50:	e0bfff17 	ldw	r2,-4(fp)
  201a54:	1884b03a 	or	r2,r3,r2
  201a58:	108000cc 	andi	r2,r2,3
  201a5c:	1000471e 	bne	r2,zero,201b7c <memmove+0x1e4>
        {
          aligned_dst = (long*)dst;
  201a60:	e0bfff17 	ldw	r2,-4(fp)
  201a64:	e0bffd15 	stw	r2,-12(fp)
          aligned_src = (long*)src;
  201a68:	e0bffe17 	ldw	r2,-8(fp)
  201a6c:	e0bffc15 	stw	r2,-16(fp)

          /* Copy 4X long words at a time if possible.  */
          while (length >= BIGBLOCKSIZE)
  201a70:	00002306 	br	201b00 <memmove+0x168>
            {
              *aligned_dst++ = *aligned_src++;
  201a74:	e0fffc17 	ldw	r3,-16(fp)
  201a78:	18800104 	addi	r2,r3,4
  201a7c:	e0bffc15 	stw	r2,-16(fp)
  201a80:	e0bffd17 	ldw	r2,-12(fp)
  201a84:	11000104 	addi	r4,r2,4
  201a88:	e13ffd15 	stw	r4,-12(fp)
  201a8c:	18c00017 	ldw	r3,0(r3)
  201a90:	10c00015 	stw	r3,0(r2)
              *aligned_dst++ = *aligned_src++;
  201a94:	e0fffc17 	ldw	r3,-16(fp)
  201a98:	18800104 	addi	r2,r3,4
  201a9c:	e0bffc15 	stw	r2,-16(fp)
  201aa0:	e0bffd17 	ldw	r2,-12(fp)
  201aa4:	11000104 	addi	r4,r2,4
  201aa8:	e13ffd15 	stw	r4,-12(fp)
  201aac:	18c00017 	ldw	r3,0(r3)
  201ab0:	10c00015 	stw	r3,0(r2)
              *aligned_dst++ = *aligned_src++;
  201ab4:	e0fffc17 	ldw	r3,-16(fp)
  201ab8:	18800104 	addi	r2,r3,4
  201abc:	e0bffc15 	stw	r2,-16(fp)
  201ac0:	e0bffd17 	ldw	r2,-12(fp)
  201ac4:	11000104 	addi	r4,r2,4
  201ac8:	e13ffd15 	stw	r4,-12(fp)
  201acc:	18c00017 	ldw	r3,0(r3)
  201ad0:	10c00015 	stw	r3,0(r2)
              *aligned_dst++ = *aligned_src++;
  201ad4:	e0fffc17 	ldw	r3,-16(fp)
  201ad8:	18800104 	addi	r2,r3,4
  201adc:	e0bffc15 	stw	r2,-16(fp)
  201ae0:	e0bffd17 	ldw	r2,-12(fp)
  201ae4:	11000104 	addi	r4,r2,4
  201ae8:	e13ffd15 	stw	r4,-12(fp)
  201aec:	18c00017 	ldw	r3,0(r3)
  201af0:	10c00015 	stw	r3,0(r2)
              length -= BIGBLOCKSIZE;
  201af4:	e0bff917 	ldw	r2,-28(fp)
  201af8:	10bffc04 	addi	r2,r2,-16
  201afc:	e0bff915 	stw	r2,-28(fp)
          while (length >= BIGBLOCKSIZE)
  201b00:	e0bff917 	ldw	r2,-28(fp)
  201b04:	10800428 	cmpgeui	r2,r2,16
  201b08:	103fda1e 	bne	r2,zero,201a74 <memmove+0xdc>
            }

          /* Copy one long word at a time if possible.  */
          while (length >= LITTLEBLOCKSIZE)
  201b0c:	00000b06 	br	201b3c <memmove+0x1a4>
            {
              *aligned_dst++ = *aligned_src++;
  201b10:	e0fffc17 	ldw	r3,-16(fp)
  201b14:	18800104 	addi	r2,r3,4
  201b18:	e0bffc15 	stw	r2,-16(fp)
  201b1c:	e0bffd17 	ldw	r2,-12(fp)
  201b20:	11000104 	addi	r4,r2,4
  201b24:	e13ffd15 	stw	r4,-12(fp)
  201b28:	18c00017 	ldw	r3,0(r3)
  201b2c:	10c00015 	stw	r3,0(r2)
              length -= LITTLEBLOCKSIZE;
  201b30:	e0bff917 	ldw	r2,-28(fp)
  201b34:	10bfff04 	addi	r2,r2,-4
  201b38:	e0bff915 	stw	r2,-28(fp)
          while (length >= LITTLEBLOCKSIZE)
  201b3c:	e0bff917 	ldw	r2,-28(fp)
  201b40:	10800128 	cmpgeui	r2,r2,4
  201b44:	103ff21e 	bne	r2,zero,201b10 <memmove+0x178>
            }

          /* Pick up any residual with a byte copier.  */
          dst = (char*)aligned_dst;
  201b48:	e0bffd17 	ldw	r2,-12(fp)
  201b4c:	e0bfff15 	stw	r2,-4(fp)
          src = (char*)aligned_src;
  201b50:	e0bffc17 	ldw	r2,-16(fp)
  201b54:	e0bffe15 	stw	r2,-8(fp)
        }

      while (length--)
  201b58:	00000806 	br	201b7c <memmove+0x1e4>
        {
          *dst++ = *src++;
  201b5c:	e0fffe17 	ldw	r3,-8(fp)
  201b60:	18800044 	addi	r2,r3,1
  201b64:	e0bffe15 	stw	r2,-8(fp)
  201b68:	e0bfff17 	ldw	r2,-4(fp)
  201b6c:	11000044 	addi	r4,r2,1
  201b70:	e13fff15 	stw	r4,-4(fp)
  201b74:	18c00003 	ldbu	r3,0(r3)
  201b78:	10c00005 	stb	r3,0(r2)
      while (length--)
  201b7c:	e0bff917 	ldw	r2,-28(fp)
  201b80:	10ffffc4 	addi	r3,r2,-1
  201b84:	e0fff915 	stw	r3,-28(fp)
  201b88:	103ff41e 	bne	r2,zero,201b5c <memmove+0x1c4>
        }
    }

  return dst_void;
  201b8c:	e0bffb17 	ldw	r2,-20(fp)
#endif /* not PREFER_SIZE_OVER_SPEED */
}
  201b90:	e037883a 	mov	sp,fp
  201b94:	df000017 	ldw	fp,0(sp)
  201b98:	dec00104 	addi	sp,sp,4
  201b9c:	f800283a 	ret

00201ba0 <memset>:
void *
__inhibit_loop_to_libcall
memset (void *m,
	int c,
	size_t n)
{
  201ba0:	defff704 	addi	sp,sp,-36
  201ba4:	df000815 	stw	fp,32(sp)
  201ba8:	df000804 	addi	fp,sp,32
  201bac:	e13ffa15 	stw	r4,-24(fp)
  201bb0:	e17ff915 	stw	r5,-28(fp)
  201bb4:	e1bff815 	stw	r6,-32(fp)
  char *s = (char *) m;
  201bb8:	e0bffa17 	ldw	r2,-24(fp)
  201bbc:	e0bfff15 	stw	r2,-4(fp)

#if !defined(PREFER_SIZE_OVER_SPEED) && !defined(__OPTIMIZE_SIZE__)
  unsigned int i;
  unsigned long buffer;
  unsigned long *aligned_addr;
  unsigned int d = c & 0xff;	/* To avoid sign extension, copy C to an
  201bc0:	e0bff917 	ldw	r2,-28(fp)
  201bc4:	10803fcc 	andi	r2,r2,255
  201bc8:	e0bffb15 	stw	r2,-20(fp)
				   unsigned variable.  */

  while (UNALIGNED (s))
  201bcc:	00000c06 	br	201c00 <memset+0x60>
    {
      if (n--)
  201bd0:	e0bff817 	ldw	r2,-32(fp)
  201bd4:	10ffffc4 	addi	r3,r2,-1
  201bd8:	e0fff815 	stw	r3,-32(fp)
  201bdc:	10000626 	beq	r2,zero,201bf8 <memset+0x58>
        *s++ = (char) c;
  201be0:	e0bfff17 	ldw	r2,-4(fp)
  201be4:	10c00044 	addi	r3,r2,1
  201be8:	e0ffff15 	stw	r3,-4(fp)
  201bec:	e0fff917 	ldw	r3,-28(fp)
  201bf0:	10c00005 	stb	r3,0(r2)
  201bf4:	00000206 	br	201c00 <memset+0x60>
      else
        return m;
  201bf8:	e0bffa17 	ldw	r2,-24(fp)
  201bfc:	00005506 	br	201d54 <memset+0x1b4>
  while (UNALIGNED (s))
  201c00:	e0bfff17 	ldw	r2,-4(fp)
  201c04:	108000cc 	andi	r2,r2,3
  201c08:	103ff11e 	bne	r2,zero,201bd0 <memset+0x30>
    }

  if (!TOO_SMALL (n))
  201c0c:	e0bff817 	ldw	r2,-32(fp)
  201c10:	10800130 	cmpltui	r2,r2,4
  201c14:	10004a1e 	bne	r2,zero,201d40 <memset+0x1a0>
    {
      /* If we get this far, we know that n is large and s is word-aligned. */
      aligned_addr = (unsigned long *) s;
  201c18:	e0bfff17 	ldw	r2,-4(fp)
  201c1c:	e0bffc15 	stw	r2,-16(fp)

      /* Store D into each char sized location in BUFFER so that
         we can set large blocks quickly.  */
      buffer = (d << 8) | d;
  201c20:	e0bffb17 	ldw	r2,-20(fp)
  201c24:	1004923a 	slli	r2,r2,8
  201c28:	e0fffb17 	ldw	r3,-20(fp)
  201c2c:	1884b03a 	or	r2,r3,r2
  201c30:	e0bffd15 	stw	r2,-12(fp)
      buffer |= (buffer << 16);
  201c34:	e0bffd17 	ldw	r2,-12(fp)
  201c38:	1004943a 	slli	r2,r2,16
  201c3c:	e0fffd17 	ldw	r3,-12(fp)
  201c40:	1884b03a 	or	r2,r3,r2
  201c44:	e0bffd15 	stw	r2,-12(fp)
      for (i = 32; i < LBLOCKSIZE * 8; i <<= 1)
  201c48:	00800804 	movi	r2,32
  201c4c:	e0bffe15 	stw	r2,-8(fp)
  201c50:	00000906 	br	201c78 <memset+0xd8>
        buffer = (buffer << i) | buffer;
  201c54:	e0fffd17 	ldw	r3,-12(fp)
  201c58:	e0bffe17 	ldw	r2,-8(fp)
  201c5c:	1884983a 	sll	r2,r3,r2
  201c60:	e0fffd17 	ldw	r3,-12(fp)
  201c64:	1884b03a 	or	r2,r3,r2
  201c68:	e0bffd15 	stw	r2,-12(fp)
      for (i = 32; i < LBLOCKSIZE * 8; i <<= 1)
  201c6c:	e0bffe17 	ldw	r2,-8(fp)
  201c70:	1085883a 	add	r2,r2,r2
  201c74:	e0bffe15 	stw	r2,-8(fp)
  201c78:	e0bffe17 	ldw	r2,-8(fp)
  201c7c:	10800830 	cmpltui	r2,r2,32
  201c80:	103ff41e 	bne	r2,zero,201c54 <memset+0xb4>

      /* Unroll the loop.  */
      while (n >= LBLOCKSIZE*4)
  201c84:	00001706 	br	201ce4 <memset+0x144>
        {
          *aligned_addr++ = buffer;
  201c88:	e0bffc17 	ldw	r2,-16(fp)
  201c8c:	10c00104 	addi	r3,r2,4
  201c90:	e0fffc15 	stw	r3,-16(fp)
  201c94:	e0fffd17 	ldw	r3,-12(fp)
  201c98:	10c00015 	stw	r3,0(r2)
          *aligned_addr++ = buffer;
  201c9c:	e0bffc17 	ldw	r2,-16(fp)
  201ca0:	10c00104 	addi	r3,r2,4
  201ca4:	e0fffc15 	stw	r3,-16(fp)
  201ca8:	e0fffd17 	ldw	r3,-12(fp)
  201cac:	10c00015 	stw	r3,0(r2)
          *aligned_addr++ = buffer;
  201cb0:	e0bffc17 	ldw	r2,-16(fp)
  201cb4:	10c00104 	addi	r3,r2,4
  201cb8:	e0fffc15 	stw	r3,-16(fp)
  201cbc:	e0fffd17 	ldw	r3,-12(fp)
  201cc0:	10c00015 	stw	r3,0(r2)
          *aligned_addr++ = buffer;
  201cc4:	e0bffc17 	ldw	r2,-16(fp)
  201cc8:	10c00104 	addi	r3,r2,4
  201ccc:	e0fffc15 	stw	r3,-16(fp)
  201cd0:	e0fffd17 	ldw	r3,-12(fp)
  201cd4:	10c00015 	stw	r3,0(r2)
          n -= 4*LBLOCKSIZE;
  201cd8:	e0bff817 	ldw	r2,-32(fp)
  201cdc:	10bffc04 	addi	r2,r2,-16
  201ce0:	e0bff815 	stw	r2,-32(fp)
      while (n >= LBLOCKSIZE*4)
  201ce4:	e0bff817 	ldw	r2,-32(fp)
  201ce8:	10800428 	cmpgeui	r2,r2,16
  201cec:	103fe61e 	bne	r2,zero,201c88 <memset+0xe8>
        }

      while (n >= LBLOCKSIZE)
  201cf0:	00000806 	br	201d14 <memset+0x174>
        {
          *aligned_addr++ = buffer;
  201cf4:	e0bffc17 	ldw	r2,-16(fp)
  201cf8:	10c00104 	addi	r3,r2,4
  201cfc:	e0fffc15 	stw	r3,-16(fp)
  201d00:	e0fffd17 	ldw	r3,-12(fp)
  201d04:	10c00015 	stw	r3,0(r2)
          n -= LBLOCKSIZE;
  201d08:	e0bff817 	ldw	r2,-32(fp)
  201d0c:	10bfff04 	addi	r2,r2,-4
  201d10:	e0bff815 	stw	r2,-32(fp)
      while (n >= LBLOCKSIZE)
  201d14:	e0bff817 	ldw	r2,-32(fp)
  201d18:	10800128 	cmpgeui	r2,r2,4
  201d1c:	103ff51e 	bne	r2,zero,201cf4 <memset+0x154>
        }
      /* Pick up the remainder with a bytewise loop.  */
      s = (char*)aligned_addr;
  201d20:	e0bffc17 	ldw	r2,-16(fp)
  201d24:	e0bfff15 	stw	r2,-4(fp)
    }

#endif /* not PREFER_SIZE_OVER_SPEED */

  while (n--)
  201d28:	00000506 	br	201d40 <memset+0x1a0>
    *s++ = (char) c;
  201d2c:	e0bfff17 	ldw	r2,-4(fp)
  201d30:	10c00044 	addi	r3,r2,1
  201d34:	e0ffff15 	stw	r3,-4(fp)
  201d38:	e0fff917 	ldw	r3,-28(fp)
  201d3c:	10c00005 	stb	r3,0(r2)
  while (n--)
  201d40:	e0bff817 	ldw	r2,-32(fp)
  201d44:	10ffffc4 	addi	r3,r2,-1
  201d48:	e0fff815 	stw	r3,-32(fp)
  201d4c:	103ff71e 	bne	r2,zero,201d2c <memset+0x18c>

  return m;
  201d50:	e0bffa17 	ldw	r2,-24(fp)
}
  201d54:	e037883a 	mov	sp,fp
  201d58:	df000017 	ldw	fp,0(sp)
  201d5c:	dec00104 	addi	sp,sp,4
  201d60:	f800283a 	ret

00201d64 <_close_r>:

int
_close_r (ptr, fd)
     struct _reent *ptr;
     int fd;
{
  201d64:	defffb04 	addi	sp,sp,-20
  201d68:	dfc00415 	stw	ra,16(sp)
  201d6c:	df000315 	stw	fp,12(sp)
  201d70:	df000304 	addi	fp,sp,12
  201d74:	e13ffe15 	stw	r4,-8(fp)
  201d78:	e17ffd15 	stw	r5,-12(fp)
  int ret;

  errno = 0;
  201d7c:	d0261a15 	stw	zero,-26520(gp)
  if ((ret = _close (fd)) == -1 && errno != 0)
  201d80:	e13ffd17 	ldw	r4,-12(fp)
  201d84:	0204f0c0 	call	204f0c <close>
  201d88:	e0bfff15 	stw	r2,-4(fp)
  201d8c:	e0bfff17 	ldw	r2,-4(fp)
  201d90:	10bfffd8 	cmpnei	r2,r2,-1
  201d94:	1000051e 	bne	r2,zero,201dac <_close_r+0x48>
  201d98:	d0a61a17 	ldw	r2,-26520(gp)
  201d9c:	10000326 	beq	r2,zero,201dac <_close_r+0x48>
    _REENT_ERRNO(ptr) = errno;
  201da0:	d0e61a17 	ldw	r3,-26520(gp)
  201da4:	e0bffe17 	ldw	r2,-8(fp)
  201da8:	10c00015 	stw	r3,0(r2)
  return ret;
  201dac:	e0bfff17 	ldw	r2,-4(fp)
}
  201db0:	e037883a 	mov	sp,fp
  201db4:	dfc00117 	ldw	ra,4(sp)
  201db8:	df000017 	ldw	fp,0(sp)
  201dbc:	dec00204 	addi	sp,sp,8
  201dc0:	f800283a 	ret

00201dc4 <_reclaim_reent>:

#endif

void
_reclaim_reent (struct _reent *ptr)
{
  201dc4:	defffa04 	addi	sp,sp,-24
  201dc8:	dfc00515 	stw	ra,20(sp)
  201dcc:	df000415 	stw	fp,16(sp)
  201dd0:	df000404 	addi	fp,sp,16
  201dd4:	e13ffc15 	stw	r4,-16(fp)
#ifndef _REENT_THREAD_LOCAL
  if (ptr != _impure_ptr)
  201dd8:	d0a00017 	ldw	r2,-32768(gp)
  201ddc:	e0fffc17 	ldw	r3,-16(fp)
  201de0:	18803926 	beq	r3,r2,201ec8 <_reclaim_reent+0x104>
      /* used by mprec routines. */
#ifdef _REENT_SMALL
      if (ptr->_mp)	/* don't bother allocating it! */
      {
#endif
      if (_REENT_MP_FREELIST(ptr))
  201de4:	e0bffc17 	ldw	r2,-16(fp)
  201de8:	10801117 	ldw	r2,68(r2)
  201dec:	10001f26 	beq	r2,zero,201e6c <_reclaim_reent+0xa8>
	{
	  int i;
	  for (i = 0; i < _Kmax; i++) 
  201df0:	e03fff15 	stw	zero,-4(fp)
  201df4:	00001506 	br	201e4c <_reclaim_reent+0x88>
	    {
	      struct _Bigint *thisone, *nextone;
	
	      nextone = _REENT_MP_FREELIST(ptr)[i];
  201df8:	e0bffc17 	ldw	r2,-16(fp)
  201dfc:	10c01117 	ldw	r3,68(r2)
  201e00:	e0bfff17 	ldw	r2,-4(fp)
  201e04:	100490ba 	slli	r2,r2,2
  201e08:	1885883a 	add	r2,r3,r2
  201e0c:	10800017 	ldw	r2,0(r2)
  201e10:	e0bffe15 	stw	r2,-8(fp)
	      while (nextone)
  201e14:	00000806 	br	201e38 <_reclaim_reent+0x74>
		{
		  thisone = nextone;
  201e18:	e0bffe17 	ldw	r2,-8(fp)
  201e1c:	e0bffd15 	stw	r2,-12(fp)
		  nextone = nextone->_next;
  201e20:	e0bffe17 	ldw	r2,-8(fp)
  201e24:	10800017 	ldw	r2,0(r2)
  201e28:	e0bffe15 	stw	r2,-8(fp)
		  _free_r (ptr, thisone);
  201e2c:	e17ffd17 	ldw	r5,-12(fp)
  201e30:	e13ffc17 	ldw	r4,-16(fp)
  201e34:	02020680 	call	202068 <_free_r>
	      while (nextone)
  201e38:	e0bffe17 	ldw	r2,-8(fp)
  201e3c:	103ff61e 	bne	r2,zero,201e18 <_reclaim_reent+0x54>
	  for (i = 0; i < _Kmax; i++) 
  201e40:	e0bfff17 	ldw	r2,-4(fp)
  201e44:	10800044 	addi	r2,r2,1
  201e48:	e0bfff15 	stw	r2,-4(fp)
  201e4c:	e0bfff17 	ldw	r2,-4(fp)
  201e50:	10800830 	cmpltui	r2,r2,32
  201e54:	103fe81e 	bne	r2,zero,201df8 <_reclaim_reent+0x34>
		}
	    }    

	  _free_r (ptr, _REENT_MP_FREELIST(ptr));
  201e58:	e0bffc17 	ldw	r2,-16(fp)
  201e5c:	10801117 	ldw	r2,68(r2)
  201e60:	100b883a 	mov	r5,r2
  201e64:	e13ffc17 	ldw	r4,-16(fp)
  201e68:	02020680 	call	202068 <_free_r>
	}
      if (_REENT_MP_RESULT(ptr))
  201e6c:	e0bffc17 	ldw	r2,-16(fp)
  201e70:	10800e17 	ldw	r2,56(r2)
  201e74:	10000526 	beq	r2,zero,201e8c <_reclaim_reent+0xc8>
	_free_r (ptr, _REENT_MP_RESULT(ptr));
  201e78:	e0bffc17 	ldw	r2,-16(fp)
  201e7c:	10800e17 	ldw	r2,56(r2)
  201e80:	100b883a 	mov	r5,r2
  201e84:	e13ffc17 	ldw	r4,-16(fp)
  201e88:	02020680 	call	202068 <_free_r>
	_free_r (ptr, ptr->_signal_buf);
	  if (ptr->_misc)
	_free_r (ptr, ptr->_misc);
#endif

      if (_REENT_CVTBUF(ptr))
  201e8c:	e0bffc17 	ldw	r2,-16(fp)
  201e90:	10801317 	ldw	r2,76(r2)
  201e94:	10000526 	beq	r2,zero,201eac <_reclaim_reent+0xe8>
	_free_r (ptr, _REENT_CVTBUF(ptr));
  201e98:	e0bffc17 	ldw	r2,-16(fp)
  201e9c:	10801317 	ldw	r2,76(r2)
  201ea0:	100b883a 	mov	r5,r2
  201ea4:	e13ffc17 	ldw	r4,-16(fp)
  201ea8:	02020680 	call	202068 <_free_r>
	   after the free?
	  if (_REENT_SIG_FUNC(ptr))
	_free_r (ptr, _REENT_SIG_FUNC(ptr));*/

#ifndef WANT_SMALL_STDIO             /* IntelSpecific */
      if (_REENT_CLEANUP(ptr))
  201eac:	e0bffc17 	ldw	r2,-16(fp)
  201eb0:	10800d17 	ldw	r2,52(r2)
  201eb4:	10000426 	beq	r2,zero,201ec8 <_reclaim_reent+0x104>
	{
	  /* cleanup won't reclaim memory 'coz usually it's run
	     before the program exits, and who wants to wait for that? */
	  _REENT_CLEANUP(ptr) (ptr);
  201eb8:	e0bffc17 	ldw	r2,-16(fp)
  201ebc:	10800d17 	ldw	r2,52(r2)
  201ec0:	e13ffc17 	ldw	r4,-16(fp)
  201ec4:	103ee83a 	callr	r2
#endif                               /* IntelSpecific */

      /* Malloc memory not reclaimed; no good way to return memory anyway. */

    }
}
  201ec8:	0001883a 	nop
  201ecc:	e037883a 	mov	sp,fp
  201ed0:	dfc00117 	ldw	ra,4(sp)
  201ed4:	df000017 	ldw	fp,0(sp)
  201ed8:	dec00204 	addi	sp,sp,8
  201edc:	f800283a 	ret

00201ee0 <_lseek_r>:
_off_t
_lseek_r (struct _reent *ptr,
     int fd,
     _off_t pos,
     int whence)
{
  201ee0:	defff904 	addi	sp,sp,-28
  201ee4:	dfc00615 	stw	ra,24(sp)
  201ee8:	df000515 	stw	fp,20(sp)
  201eec:	df000504 	addi	fp,sp,20
  201ef0:	e13ffe15 	stw	r4,-8(fp)
  201ef4:	e17ffd15 	stw	r5,-12(fp)
  201ef8:	e1bffc15 	stw	r6,-16(fp)
  201efc:	e1fffb15 	stw	r7,-20(fp)
  _off_t ret;

  errno = 0;
  201f00:	d0261a15 	stw	zero,-26520(gp)
  if ((ret = _lseek (fd, pos, whence)) == (_off_t) -1 && errno != 0)
  201f04:	e1bffb17 	ldw	r6,-20(fp)
  201f08:	e17ffc17 	ldw	r5,-16(fp)
  201f0c:	e13ffd17 	ldw	r4,-12(fp)
  201f10:	02053380 	call	205338 <lseek>
  201f14:	e0bfff15 	stw	r2,-4(fp)
  201f18:	e0bfff17 	ldw	r2,-4(fp)
  201f1c:	10bfffd8 	cmpnei	r2,r2,-1
  201f20:	1000051e 	bne	r2,zero,201f38 <_lseek_r+0x58>
  201f24:	d0a61a17 	ldw	r2,-26520(gp)
  201f28:	10000326 	beq	r2,zero,201f38 <_lseek_r+0x58>
    _REENT_ERRNO(ptr) = errno;
  201f2c:	d0e61a17 	ldw	r3,-26520(gp)
  201f30:	e0bffe17 	ldw	r2,-8(fp)
  201f34:	10c00015 	stw	r3,0(r2)
  return ret;
  201f38:	e0bfff17 	ldw	r2,-4(fp)
}
  201f3c:	e037883a 	mov	sp,fp
  201f40:	dfc00117 	ldw	ra,4(sp)
  201f44:	df000017 	ldw	fp,0(sp)
  201f48:	dec00204 	addi	sp,sp,8
  201f4c:	f800283a 	ret

00201f50 <_read_r>:
_ssize_t
_read_r (struct _reent *ptr,
     int fd,
     void *buf,
     size_t cnt)
{
  201f50:	defff904 	addi	sp,sp,-28
  201f54:	dfc00615 	stw	ra,24(sp)
  201f58:	df000515 	stw	fp,20(sp)
  201f5c:	df000504 	addi	fp,sp,20
  201f60:	e13ffe15 	stw	r4,-8(fp)
  201f64:	e17ffd15 	stw	r5,-12(fp)
  201f68:	e1bffc15 	stw	r6,-16(fp)
  201f6c:	e1fffb15 	stw	r7,-20(fp)
  _ssize_t ret;

  errno = 0;
  201f70:	d0261a15 	stw	zero,-26520(gp)
  if ((ret = (_ssize_t)_read (fd, buf, cnt)) == -1 && errno != 0)
  201f74:	e1bffb17 	ldw	r6,-20(fp)
  201f78:	e17ffc17 	ldw	r5,-16(fp)
  201f7c:	e13ffd17 	ldw	r4,-12(fp)
  201f80:	020550c0 	call	20550c <read>
  201f84:	e0bfff15 	stw	r2,-4(fp)
  201f88:	e0bfff17 	ldw	r2,-4(fp)
  201f8c:	10bfffd8 	cmpnei	r2,r2,-1
  201f90:	1000051e 	bne	r2,zero,201fa8 <_read_r+0x58>
  201f94:	d0a61a17 	ldw	r2,-26520(gp)
  201f98:	10000326 	beq	r2,zero,201fa8 <_read_r+0x58>
    _REENT_ERRNO(ptr) = errno;
  201f9c:	d0e61a17 	ldw	r3,-26520(gp)
  201fa0:	e0bffe17 	ldw	r2,-8(fp)
  201fa4:	10c00015 	stw	r3,0(r2)
  return ret;
  201fa8:	e0bfff17 	ldw	r2,-4(fp)
}
  201fac:	e037883a 	mov	sp,fp
  201fb0:	dfc00117 	ldw	ra,4(sp)
  201fb4:	df000017 	ldw	fp,0(sp)
  201fb8:	dec00204 	addi	sp,sp,8
  201fbc:	f800283a 	ret

00201fc0 <_write_r>:
_ssize_t
_write_r (struct _reent *ptr,
     int fd,
     const void *buf,
     size_t cnt)
{
  201fc0:	defff904 	addi	sp,sp,-28
  201fc4:	dfc00615 	stw	ra,24(sp)
  201fc8:	df000515 	stw	fp,20(sp)
  201fcc:	df000504 	addi	fp,sp,20
  201fd0:	e13ffe15 	stw	r4,-8(fp)
  201fd4:	e17ffd15 	stw	r5,-12(fp)
  201fd8:	e1bffc15 	stw	r6,-16(fp)
  201fdc:	e1fffb15 	stw	r7,-20(fp)
  _ssize_t ret;

  errno = 0;
  201fe0:	d0261a15 	stw	zero,-26520(gp)
  if ((ret = (_ssize_t)_write (fd, buf, cnt)) == -1 && errno != 0)
  201fe4:	e1bffb17 	ldw	r6,-20(fp)
  201fe8:	e17ffc17 	ldw	r5,-16(fp)
  201fec:	e13ffd17 	ldw	r4,-12(fp)
  201ff0:	02057540 	call	205754 <write>
  201ff4:	e0bfff15 	stw	r2,-4(fp)
  201ff8:	e0bfff17 	ldw	r2,-4(fp)
  201ffc:	10bfffd8 	cmpnei	r2,r2,-1
  202000:	1000051e 	bne	r2,zero,202018 <_write_r+0x58>
  202004:	d0a61a17 	ldw	r2,-26520(gp)
  202008:	10000326 	beq	r2,zero,202018 <_write_r+0x58>
    _REENT_ERRNO(ptr) = errno;
  20200c:	d0e61a17 	ldw	r3,-26520(gp)
  202010:	e0bffe17 	ldw	r2,-8(fp)
  202014:	10c00015 	stw	r3,0(r2)
  return ret;
  202018:	e0bfff17 	ldw	r2,-4(fp)
}
  20201c:	e037883a 	mov	sp,fp
  202020:	dfc00117 	ldw	ra,4(sp)
  202024:	df000017 	ldw	fp,0(sp)
  202028:	dec00204 	addi	sp,sp,8
  20202c:	f800283a 	ret

00202030 <exit>:
 * Exit, flushing stdio buffers if necessary.
 */

void
exit (int code)
{
  202030:	defffd04 	addi	sp,sp,-12
  202034:	dfc00215 	stw	ra,8(sp)
  202038:	df000115 	stw	fp,4(sp)
  20203c:	df000104 	addi	fp,sp,4
  202040:	e13fff15 	stw	r4,-4(fp)
#ifdef _LITE_EXIT
  /* Refer to comments in __atexit.c for more details of lite exit.  */
  void __call_exitprocs (int, void *) __attribute__((weak));
  if (__call_exitprocs)
#endif
    __call_exitprocs (code, NULL);
  202044:	000b883a 	mov	r5,zero
  202048:	e13fff17 	ldw	r4,-4(fp)
  20204c:	0204b900 	call	204b90 <__call_exitprocs>
#ifndef WANT_SMALL_STDIO        /* IntelSpecific */
  if (__stdio_exit_handler != NULL)
  202050:	d0a61b17 	ldw	r2,-26516(gp)
  202054:	10000226 	beq	r2,zero,202060 <exit+0x30>
    (*__stdio_exit_handler) ();
  202058:	d0a61b17 	ldw	r2,-26516(gp)
  20205c:	103ee83a 	callr	r2
#endif                          /* IntelSpecific */
  _exit (code);
  202060:	e13fff17 	ldw	r4,-4(fp)
  202064:	02050080 	call	205008 <_exit>

00202068 <_free_r>:
  202068:	defff204 	addi	sp,sp,-56
  20206c:	dfc00d15 	stw	ra,52(sp)
  202070:	df000c15 	stw	fp,48(sp)
  202074:	df000c04 	addi	fp,sp,48
  202078:	e13ff515 	stw	r4,-44(fp)
  20207c:	e17ff415 	stw	r5,-48(fp)
  202080:	e0bff417 	ldw	r2,-48(fp)
  202084:	10014826 	beq	r2,zero,2025a8 <_free_r+0x540>
  202088:	e13ff517 	ldw	r4,-44(fp)
  20208c:	02054880 	call	205488 <__malloc_lock>
  202090:	e0bff417 	ldw	r2,-48(fp)
  202094:	10bffe04 	addi	r2,r2,-8
  202098:	e0bfff15 	stw	r2,-4(fp)
  20209c:	e0bfff17 	ldw	r2,-4(fp)
  2020a0:	10800117 	ldw	r2,4(r2)
  2020a4:	e0bffa15 	stw	r2,-24(fp)
  2020a8:	e0fffa17 	ldw	r3,-24(fp)
  2020ac:	00bfff84 	movi	r2,-2
  2020b0:	1884703a 	and	r2,r3,r2
  2020b4:	e0bffe15 	stw	r2,-8(fp)
  2020b8:	e0ffff17 	ldw	r3,-4(fp)
  2020bc:	e0bffe17 	ldw	r2,-8(fp)
  2020c0:	1885883a 	add	r2,r3,r2
  2020c4:	e0bff915 	stw	r2,-28(fp)
  2020c8:	e0bff917 	ldw	r2,-28(fp)
  2020cc:	10c00117 	ldw	r3,4(r2)
  2020d0:	00bfff04 	movi	r2,-4
  2020d4:	1884703a 	and	r2,r3,r2
  2020d8:	e0bff815 	stw	r2,-32(fp)
  2020dc:	00800834 	movhi	r2,32
  2020e0:	109fd404 	addi	r2,r2,32592
  2020e4:	10800217 	ldw	r2,8(r2)
  2020e8:	e0fff917 	ldw	r3,-28(fp)
  2020ec:	1880311e 	bne	r3,r2,2021b4 <_free_r+0x14c>
  2020f0:	e0fffe17 	ldw	r3,-8(fp)
  2020f4:	e0bff817 	ldw	r2,-32(fp)
  2020f8:	1885883a 	add	r2,r3,r2
  2020fc:	e0bffe15 	stw	r2,-8(fp)
  202100:	e0bffa17 	ldw	r2,-24(fp)
  202104:	1080004c 	andi	r2,r2,1
  202108:	1000181e 	bne	r2,zero,20216c <_free_r+0x104>
  20210c:	e0bfff17 	ldw	r2,-4(fp)
  202110:	10800017 	ldw	r2,0(r2)
  202114:	e0bff715 	stw	r2,-36(fp)
  202118:	e0bff717 	ldw	r2,-36(fp)
  20211c:	0085c83a 	sub	r2,zero,r2
  202120:	e0ffff17 	ldw	r3,-4(fp)
  202124:	1885883a 	add	r2,r3,r2
  202128:	e0bfff15 	stw	r2,-4(fp)
  20212c:	e0fffe17 	ldw	r3,-8(fp)
  202130:	e0bff717 	ldw	r2,-36(fp)
  202134:	1885883a 	add	r2,r3,r2
  202138:	e0bffe15 	stw	r2,-8(fp)
  20213c:	e0bfff17 	ldw	r2,-4(fp)
  202140:	10800317 	ldw	r2,12(r2)
  202144:	e0bffd15 	stw	r2,-12(fp)
  202148:	e0bfff17 	ldw	r2,-4(fp)
  20214c:	10800217 	ldw	r2,8(r2)
  202150:	e0bffc15 	stw	r2,-16(fp)
  202154:	e0bffc17 	ldw	r2,-16(fp)
  202158:	e0fffd17 	ldw	r3,-12(fp)
  20215c:	10c00315 	stw	r3,12(r2)
  202160:	e0bffd17 	ldw	r2,-12(fp)
  202164:	e0fffc17 	ldw	r3,-16(fp)
  202168:	10c00215 	stw	r3,8(r2)
  20216c:	e0bffe17 	ldw	r2,-8(fp)
  202170:	10c00054 	ori	r3,r2,1
  202174:	e0bfff17 	ldw	r2,-4(fp)
  202178:	10c00115 	stw	r3,4(r2)
  20217c:	00800834 	movhi	r2,32
  202180:	109fd404 	addi	r2,r2,32592
  202184:	e0ffff17 	ldw	r3,-4(fp)
  202188:	10c00215 	stw	r3,8(r2)
  20218c:	d0a00117 	ldw	r2,-32764(gp)
  202190:	e0fffe17 	ldw	r3,-8(fp)
  202194:	18800436 	bltu	r3,r2,2021a8 <_free_r+0x140>
  202198:	d0a61c17 	ldw	r2,-26512(gp)
  20219c:	100b883a 	mov	r5,r2
  2021a0:	e13ff517 	ldw	r4,-44(fp)
  2021a4:	02025c00 	call	2025c0 <_malloc_trim_r>
  2021a8:	e13ff517 	ldw	r4,-44(fp)
  2021ac:	02054ac0 	call	2054ac <__malloc_unlock>
  2021b0:	0000fe06 	br	2025ac <_free_r+0x544>
  2021b4:	e0bff917 	ldw	r2,-28(fp)
  2021b8:	e0fff817 	ldw	r3,-32(fp)
  2021bc:	10c00115 	stw	r3,4(r2)
  2021c0:	e03ffb15 	stw	zero,-20(fp)
  2021c4:	e0bffa17 	ldw	r2,-24(fp)
  2021c8:	1080004c 	andi	r2,r2,1
  2021cc:	1000201e 	bne	r2,zero,202250 <_free_r+0x1e8>
  2021d0:	e0bfff17 	ldw	r2,-4(fp)
  2021d4:	10800017 	ldw	r2,0(r2)
  2021d8:	e0bff715 	stw	r2,-36(fp)
  2021dc:	e0bff717 	ldw	r2,-36(fp)
  2021e0:	0085c83a 	sub	r2,zero,r2
  2021e4:	e0ffff17 	ldw	r3,-4(fp)
  2021e8:	1885883a 	add	r2,r3,r2
  2021ec:	e0bfff15 	stw	r2,-4(fp)
  2021f0:	e0fffe17 	ldw	r3,-8(fp)
  2021f4:	e0bff717 	ldw	r2,-36(fp)
  2021f8:	1885883a 	add	r2,r3,r2
  2021fc:	e0bffe15 	stw	r2,-8(fp)
  202200:	e0bfff17 	ldw	r2,-4(fp)
  202204:	10c00217 	ldw	r3,8(r2)
  202208:	00800834 	movhi	r2,32
  20220c:	109fd604 	addi	r2,r2,32600
  202210:	1880031e 	bne	r3,r2,202220 <_free_r+0x1b8>
  202214:	00800044 	movi	r2,1
  202218:	e0bffb15 	stw	r2,-20(fp)
  20221c:	00000c06 	br	202250 <_free_r+0x1e8>
  202220:	e0bfff17 	ldw	r2,-4(fp)
  202224:	10800317 	ldw	r2,12(r2)
  202228:	e0bffd15 	stw	r2,-12(fp)
  20222c:	e0bfff17 	ldw	r2,-4(fp)
  202230:	10800217 	ldw	r2,8(r2)
  202234:	e0bffc15 	stw	r2,-16(fp)
  202238:	e0bffc17 	ldw	r2,-16(fp)
  20223c:	e0fffd17 	ldw	r3,-12(fp)
  202240:	10c00315 	stw	r3,12(r2)
  202244:	e0bffd17 	ldw	r2,-12(fp)
  202248:	e0fffc17 	ldw	r3,-16(fp)
  20224c:	10c00215 	stw	r3,8(r2)
  202250:	e0fff917 	ldw	r3,-28(fp)
  202254:	e0bff817 	ldw	r2,-32(fp)
  202258:	1885883a 	add	r2,r3,r2
  20225c:	10800117 	ldw	r2,4(r2)
  202260:	1080004c 	andi	r2,r2,1
  202264:	10002a1e 	bne	r2,zero,202310 <_free_r+0x2a8>
  202268:	e0fffe17 	ldw	r3,-8(fp)
  20226c:	e0bff817 	ldw	r2,-32(fp)
  202270:	1885883a 	add	r2,r3,r2
  202274:	e0bffe15 	stw	r2,-8(fp)
  202278:	e0bffb17 	ldw	r2,-20(fp)
  20227c:	1000181e 	bne	r2,zero,2022e0 <_free_r+0x278>
  202280:	e0bff917 	ldw	r2,-28(fp)
  202284:	10c00217 	ldw	r3,8(r2)
  202288:	00800834 	movhi	r2,32
  20228c:	109fd604 	addi	r2,r2,32600
  202290:	1880131e 	bne	r3,r2,2022e0 <_free_r+0x278>
  202294:	00800044 	movi	r2,1
  202298:	e0bffb15 	stw	r2,-20(fp)
  20229c:	00800834 	movhi	r2,32
  2022a0:	109fd604 	addi	r2,r2,32600
  2022a4:	e0ffff17 	ldw	r3,-4(fp)
  2022a8:	10c00315 	stw	r3,12(r2)
  2022ac:	00c00834 	movhi	r3,32
  2022b0:	18dfd604 	addi	r3,r3,32600
  2022b4:	10800317 	ldw	r2,12(r2)
  2022b8:	18800215 	stw	r2,8(r3)
  2022bc:	00800834 	movhi	r2,32
  2022c0:	109fd604 	addi	r2,r2,32600
  2022c4:	e0ffff17 	ldw	r3,-4(fp)
  2022c8:	18800315 	stw	r2,12(r3)
  2022cc:	e0bfff17 	ldw	r2,-4(fp)
  2022d0:	10c00317 	ldw	r3,12(r2)
  2022d4:	e0bfff17 	ldw	r2,-4(fp)
  2022d8:	10c00215 	stw	r3,8(r2)
  2022dc:	00000c06 	br	202310 <_free_r+0x2a8>
  2022e0:	e0bff917 	ldw	r2,-28(fp)
  2022e4:	10800317 	ldw	r2,12(r2)
  2022e8:	e0bffd15 	stw	r2,-12(fp)
  2022ec:	e0bff917 	ldw	r2,-28(fp)
  2022f0:	10800217 	ldw	r2,8(r2)
  2022f4:	e0bffc15 	stw	r2,-16(fp)
  2022f8:	e0bffc17 	ldw	r2,-16(fp)
  2022fc:	e0fffd17 	ldw	r3,-12(fp)
  202300:	10c00315 	stw	r3,12(r2)
  202304:	e0bffd17 	ldw	r2,-12(fp)
  202308:	e0fffc17 	ldw	r3,-16(fp)
  20230c:	10c00215 	stw	r3,8(r2)
  202310:	e0bffe17 	ldw	r2,-8(fp)
  202314:	10c00054 	ori	r3,r2,1
  202318:	e0bfff17 	ldw	r2,-4(fp)
  20231c:	10c00115 	stw	r3,4(r2)
  202320:	e0ffff17 	ldw	r3,-4(fp)
  202324:	e0bffe17 	ldw	r2,-8(fp)
  202328:	1885883a 	add	r2,r3,r2
  20232c:	e0fffe17 	ldw	r3,-8(fp)
  202330:	10c00015 	stw	r3,0(r2)
  202334:	e0bffb17 	ldw	r2,-20(fp)
  202338:	1000981e 	bne	r2,zero,20259c <_free_r+0x534>
  20233c:	e0bffe17 	ldw	r2,-8(fp)
  202340:	10808028 	cmpgeui	r2,r2,512
  202344:	10002b1e 	bne	r2,zero,2023f4 <_free_r+0x38c>
  202348:	e0bffe17 	ldw	r2,-8(fp)
  20234c:	1004d0fa 	srli	r2,r2,3
  202350:	e0bff615 	stw	r2,-40(fp)
  202354:	00800834 	movhi	r2,32
  202358:	109fd404 	addi	r2,r2,32592
  20235c:	11000117 	ldw	r4,4(r2)
  202360:	e0bff617 	ldw	r2,-40(fp)
  202364:	1000010e 	bge	r2,zero,20236c <_free_r+0x304>
  202368:	108000c4 	addi	r2,r2,3
  20236c:	1005d0ba 	srai	r2,r2,2
  202370:	1007883a 	mov	r3,r2
  202374:	00800044 	movi	r2,1
  202378:	10c6983a 	sll	r3,r2,r3
  20237c:	00800834 	movhi	r2,32
  202380:	109fd404 	addi	r2,r2,32592
  202384:	20c6b03a 	or	r3,r4,r3
  202388:	10c00115 	stw	r3,4(r2)
  20238c:	e0bff617 	ldw	r2,-40(fp)
  202390:	10800044 	addi	r2,r2,1
  202394:	1085883a 	add	r2,r2,r2
  202398:	100690ba 	slli	r3,r2,2
  20239c:	00800834 	movhi	r2,32
  2023a0:	109fd404 	addi	r2,r2,32592
  2023a4:	1885883a 	add	r2,r3,r2
  2023a8:	10bffe04 	addi	r2,r2,-8
  2023ac:	e0bffd15 	stw	r2,-12(fp)
  2023b0:	e0bffd17 	ldw	r2,-12(fp)
  2023b4:	10800217 	ldw	r2,8(r2)
  2023b8:	e0bffc15 	stw	r2,-16(fp)
  2023bc:	e0bfff17 	ldw	r2,-4(fp)
  2023c0:	e0fffd17 	ldw	r3,-12(fp)
  2023c4:	10c00315 	stw	r3,12(r2)
  2023c8:	e0bfff17 	ldw	r2,-4(fp)
  2023cc:	e0fffc17 	ldw	r3,-16(fp)
  2023d0:	10c00215 	stw	r3,8(r2)
  2023d4:	e0bffd17 	ldw	r2,-12(fp)
  2023d8:	e0ffff17 	ldw	r3,-4(fp)
  2023dc:	10c00215 	stw	r3,8(r2)
  2023e0:	e0bffd17 	ldw	r2,-12(fp)
  2023e4:	10c00217 	ldw	r3,8(r2)
  2023e8:	e0bffc17 	ldw	r2,-16(fp)
  2023ec:	10c00315 	stw	r3,12(r2)
  2023f0:	00006a06 	br	20259c <_free_r+0x534>
  2023f4:	e0bffe17 	ldw	r2,-8(fp)
  2023f8:	1004d27a 	srli	r2,r2,9
  2023fc:	1000031e 	bne	r2,zero,20240c <_free_r+0x3a4>
  202400:	e0bffe17 	ldw	r2,-8(fp)
  202404:	1004d0fa 	srli	r2,r2,3
  202408:	00002906 	br	2024b0 <_free_r+0x448>
  20240c:	e0bffe17 	ldw	r2,-8(fp)
  202410:	1004d27a 	srli	r2,r2,9
  202414:	10800168 	cmpgeui	r2,r2,5
  202418:	1000041e 	bne	r2,zero,20242c <_free_r+0x3c4>
  20241c:	e0bffe17 	ldw	r2,-8(fp)
  202420:	1004d1ba 	srli	r2,r2,6
  202424:	10800e04 	addi	r2,r2,56
  202428:	00002106 	br	2024b0 <_free_r+0x448>
  20242c:	e0bffe17 	ldw	r2,-8(fp)
  202430:	1004d27a 	srli	r2,r2,9
  202434:	10800568 	cmpgeui	r2,r2,21
  202438:	1000041e 	bne	r2,zero,20244c <_free_r+0x3e4>
  20243c:	e0bffe17 	ldw	r2,-8(fp)
  202440:	1004d27a 	srli	r2,r2,9
  202444:	108016c4 	addi	r2,r2,91
  202448:	00001906 	br	2024b0 <_free_r+0x448>
  20244c:	e0bffe17 	ldw	r2,-8(fp)
  202450:	1004d27a 	srli	r2,r2,9
  202454:	10801568 	cmpgeui	r2,r2,85
  202458:	1000041e 	bne	r2,zero,20246c <_free_r+0x404>
  20245c:	e0bffe17 	ldw	r2,-8(fp)
  202460:	1004d33a 	srli	r2,r2,12
  202464:	10801b84 	addi	r2,r2,110
  202468:	00001106 	br	2024b0 <_free_r+0x448>
  20246c:	e0bffe17 	ldw	r2,-8(fp)
  202470:	1004d27a 	srli	r2,r2,9
  202474:	10805568 	cmpgeui	r2,r2,341
  202478:	1000041e 	bne	r2,zero,20248c <_free_r+0x424>
  20247c:	e0bffe17 	ldw	r2,-8(fp)
  202480:	1004d3fa 	srli	r2,r2,15
  202484:	10801dc4 	addi	r2,r2,119
  202488:	00000906 	br	2024b0 <_free_r+0x448>
  20248c:	e0bffe17 	ldw	r2,-8(fp)
  202490:	1004d27a 	srli	r2,r2,9
  202494:	10815568 	cmpgeui	r2,r2,1365
  202498:	1000041e 	bne	r2,zero,2024ac <_free_r+0x444>
  20249c:	e0bffe17 	ldw	r2,-8(fp)
  2024a0:	1004d4ba 	srli	r2,r2,18
  2024a4:	10801f04 	addi	r2,r2,124
  2024a8:	00000106 	br	2024b0 <_free_r+0x448>
  2024ac:	00801f84 	movi	r2,126
  2024b0:	e0bff615 	stw	r2,-40(fp)
  2024b4:	e0bff617 	ldw	r2,-40(fp)
  2024b8:	10800044 	addi	r2,r2,1
  2024bc:	1085883a 	add	r2,r2,r2
  2024c0:	100690ba 	slli	r3,r2,2
  2024c4:	00800834 	movhi	r2,32
  2024c8:	109fd404 	addi	r2,r2,32592
  2024cc:	1885883a 	add	r2,r3,r2
  2024d0:	10bffe04 	addi	r2,r2,-8
  2024d4:	e0bffd15 	stw	r2,-12(fp)
  2024d8:	e0bffd17 	ldw	r2,-12(fp)
  2024dc:	10800217 	ldw	r2,8(r2)
  2024e0:	e0bffc15 	stw	r2,-16(fp)
  2024e4:	e0fffc17 	ldw	r3,-16(fp)
  2024e8:	e0bffd17 	ldw	r2,-12(fp)
  2024ec:	1880121e 	bne	r3,r2,202538 <_free_r+0x4d0>
  2024f0:	00800834 	movhi	r2,32
  2024f4:	109fd404 	addi	r2,r2,32592
  2024f8:	11000117 	ldw	r4,4(r2)
  2024fc:	e0bff617 	ldw	r2,-40(fp)
  202500:	1000010e 	bge	r2,zero,202508 <_free_r+0x4a0>
  202504:	108000c4 	addi	r2,r2,3
  202508:	1005d0ba 	srai	r2,r2,2
  20250c:	1007883a 	mov	r3,r2
  202510:	00800044 	movi	r2,1
  202514:	10c6983a 	sll	r3,r2,r3
  202518:	00800834 	movhi	r2,32
  20251c:	109fd404 	addi	r2,r2,32592
  202520:	20c6b03a 	or	r3,r4,r3
  202524:	10c00115 	stw	r3,4(r2)
  202528:	00000f06 	br	202568 <_free_r+0x500>
  20252c:	e0bffc17 	ldw	r2,-16(fp)
  202530:	10800217 	ldw	r2,8(r2)
  202534:	e0bffc15 	stw	r2,-16(fp)
  202538:	e0fffc17 	ldw	r3,-16(fp)
  20253c:	e0bffd17 	ldw	r2,-12(fp)
  202540:	18800626 	beq	r3,r2,20255c <_free_r+0x4f4>
  202544:	e0bffc17 	ldw	r2,-16(fp)
  202548:	10c00117 	ldw	r3,4(r2)
  20254c:	00bfff04 	movi	r2,-4
  202550:	1884703a 	and	r2,r3,r2
  202554:	e0fffe17 	ldw	r3,-8(fp)
  202558:	18bff436 	bltu	r3,r2,20252c <_free_r+0x4c4>
  20255c:	e0bffc17 	ldw	r2,-16(fp)
  202560:	10800317 	ldw	r2,12(r2)
  202564:	e0bffd15 	stw	r2,-12(fp)
  202568:	e0bfff17 	ldw	r2,-4(fp)
  20256c:	e0fffd17 	ldw	r3,-12(fp)
  202570:	10c00315 	stw	r3,12(r2)
  202574:	e0bfff17 	ldw	r2,-4(fp)
  202578:	e0fffc17 	ldw	r3,-16(fp)
  20257c:	10c00215 	stw	r3,8(r2)
  202580:	e0bffd17 	ldw	r2,-12(fp)
  202584:	e0ffff17 	ldw	r3,-4(fp)
  202588:	10c00215 	stw	r3,8(r2)
  20258c:	e0bffd17 	ldw	r2,-12(fp)
  202590:	10c00217 	ldw	r3,8(r2)
  202594:	e0bffc17 	ldw	r2,-16(fp)
  202598:	10c00315 	stw	r3,12(r2)
  20259c:	e13ff517 	ldw	r4,-44(fp)
  2025a0:	02054ac0 	call	2054ac <__malloc_unlock>
  2025a4:	00000106 	br	2025ac <_free_r+0x544>
  2025a8:	0001883a 	nop
  2025ac:	e037883a 	mov	sp,fp
  2025b0:	dfc00117 	ldw	ra,4(sp)
  2025b4:	df000017 	ldw	fp,0(sp)
  2025b8:	dec00204 	addi	sp,sp,8
  2025bc:	f800283a 	ret

002025c0 <_malloc_trim_r>:
  2025c0:	defff704 	addi	sp,sp,-36
  2025c4:	dfc00815 	stw	ra,32(sp)
  2025c8:	df000715 	stw	fp,28(sp)
  2025cc:	df000704 	addi	fp,sp,28
  2025d0:	e13ffa15 	stw	r4,-24(fp)
  2025d4:	e17ff915 	stw	r5,-28(fp)
  2025d8:	00840004 	movi	r2,4096
  2025dc:	e0bfff15 	stw	r2,-4(fp)
  2025e0:	e13ffa17 	ldw	r4,-24(fp)
  2025e4:	02054880 	call	205488 <__malloc_lock>
  2025e8:	00800834 	movhi	r2,32
  2025ec:	109fd404 	addi	r2,r2,32592
  2025f0:	10800217 	ldw	r2,8(r2)
  2025f4:	10800117 	ldw	r2,4(r2)
  2025f8:	1007883a 	mov	r3,r2
  2025fc:	00bfff04 	movi	r2,-4
  202600:	1884703a 	and	r2,r3,r2
  202604:	e0bffe15 	stw	r2,-8(fp)
  202608:	e0fffe17 	ldw	r3,-8(fp)
  20260c:	e0bff917 	ldw	r2,-28(fp)
  202610:	1887c83a 	sub	r3,r3,r2
  202614:	e0bfff17 	ldw	r2,-4(fp)
  202618:	1885883a 	add	r2,r3,r2
  20261c:	10bffbc4 	addi	r2,r2,-17
  202620:	e17fff17 	ldw	r5,-4(fp)
  202624:	1009883a 	mov	r4,r2
  202628:	0204e100 	call	204e10 <__udivsi3>
  20262c:	10ffffc4 	addi	r3,r2,-1
  202630:	e0bfff17 	ldw	r2,-4(fp)
  202634:	1885383a 	mul	r2,r3,r2
  202638:	e0bffd15 	stw	r2,-12(fp)
  20263c:	e0bfff17 	ldw	r2,-4(fp)
  202640:	e0fffd17 	ldw	r3,-12(fp)
  202644:	1880040e 	bge	r3,r2,202658 <_malloc_trim_r+0x98>
  202648:	e13ffa17 	ldw	r4,-24(fp)
  20264c:	02054ac0 	call	2054ac <__malloc_unlock>
  202650:	0005883a 	mov	r2,zero
  202654:	00004506 	br	20276c <_malloc_trim_r+0x1ac>
  202658:	000b883a 	mov	r5,zero
  20265c:	e13ffa17 	ldw	r4,-24(fp)
  202660:	0204b300 	call	204b30 <_sbrk_r>
  202664:	e0bffc15 	stw	r2,-16(fp)
  202668:	00800834 	movhi	r2,32
  20266c:	109fd404 	addi	r2,r2,32592
  202670:	10c00217 	ldw	r3,8(r2)
  202674:	e0bffe17 	ldw	r2,-8(fp)
  202678:	1885883a 	add	r2,r3,r2
  20267c:	e0fffc17 	ldw	r3,-16(fp)
  202680:	18800426 	beq	r3,r2,202694 <_malloc_trim_r+0xd4>
  202684:	e13ffa17 	ldw	r4,-24(fp)
  202688:	02054ac0 	call	2054ac <__malloc_unlock>
  20268c:	0005883a 	mov	r2,zero
  202690:	00003606 	br	20276c <_malloc_trim_r+0x1ac>
  202694:	e0bffd17 	ldw	r2,-12(fp)
  202698:	0085c83a 	sub	r2,zero,r2
  20269c:	100b883a 	mov	r5,r2
  2026a0:	e13ffa17 	ldw	r4,-24(fp)
  2026a4:	0204b300 	call	204b30 <_sbrk_r>
  2026a8:	e0bffb15 	stw	r2,-20(fp)
  2026ac:	e0bffb17 	ldw	r2,-20(fp)
  2026b0:	10bfffd8 	cmpnei	r2,r2,-1
  2026b4:	10001c1e 	bne	r2,zero,202728 <_malloc_trim_r+0x168>
  2026b8:	000b883a 	mov	r5,zero
  2026bc:	e13ffa17 	ldw	r4,-24(fp)
  2026c0:	0204b300 	call	204b30 <_sbrk_r>
  2026c4:	e0bffc15 	stw	r2,-16(fp)
  2026c8:	00800834 	movhi	r2,32
  2026cc:	109fd404 	addi	r2,r2,32592
  2026d0:	10800217 	ldw	r2,8(r2)
  2026d4:	e0fffc17 	ldw	r3,-16(fp)
  2026d8:	1885c83a 	sub	r2,r3,r2
  2026dc:	e0bffe15 	stw	r2,-8(fp)
  2026e0:	e0bffe17 	ldw	r2,-8(fp)
  2026e4:	10800410 	cmplti	r2,r2,16
  2026e8:	10000b1e 	bne	r2,zero,202718 <_malloc_trim_r+0x158>
  2026ec:	d0a00217 	ldw	r2,-32760(gp)
  2026f0:	e0fffc17 	ldw	r3,-16(fp)
  2026f4:	1887c83a 	sub	r3,r3,r2
  2026f8:	00800874 	movhi	r2,33
  2026fc:	10ec0015 	stw	r3,-20480(r2)
  202700:	e0bffe17 	ldw	r2,-8(fp)
  202704:	10c00054 	ori	r3,r2,1
  202708:	00800834 	movhi	r2,32
  20270c:	109fd404 	addi	r2,r2,32592
  202710:	10800217 	ldw	r2,8(r2)
  202714:	10c00115 	stw	r3,4(r2)
  202718:	e13ffa17 	ldw	r4,-24(fp)
  20271c:	02054ac0 	call	2054ac <__malloc_unlock>
  202720:	0005883a 	mov	r2,zero
  202724:	00001106 	br	20276c <_malloc_trim_r+0x1ac>
  202728:	e0fffe17 	ldw	r3,-8(fp)
  20272c:	e0bffd17 	ldw	r2,-12(fp)
  202730:	1885c83a 	sub	r2,r3,r2
  202734:	10c00054 	ori	r3,r2,1
  202738:	00800834 	movhi	r2,32
  20273c:	109fd404 	addi	r2,r2,32592
  202740:	10800217 	ldw	r2,8(r2)
  202744:	10c00115 	stw	r3,4(r2)
  202748:	00800874 	movhi	r2,33
  20274c:	10ec0017 	ldw	r3,-20480(r2)
  202750:	e0bffd17 	ldw	r2,-12(fp)
  202754:	1887c83a 	sub	r3,r3,r2
  202758:	00800874 	movhi	r2,33
  20275c:	10ec0015 	stw	r3,-20480(r2)
  202760:	e13ffa17 	ldw	r4,-24(fp)
  202764:	02054ac0 	call	2054ac <__malloc_unlock>
  202768:	00800044 	movi	r2,1
  20276c:	e037883a 	mov	sp,fp
  202770:	dfc00117 	ldw	ra,4(sp)
  202774:	df000017 	ldw	fp,0(sp)
  202778:	dec00204 	addi	sp,sp,8
  20277c:	f800283a 	ret

00202780 <malloc_extend_top>:
  202780:	defff104 	addi	sp,sp,-60
  202784:	dfc00e15 	stw	ra,56(sp)
  202788:	df000d15 	stw	fp,52(sp)
  20278c:	df000d04 	addi	fp,sp,52
  202790:	e13ff415 	stw	r4,-48(fp)
  202794:	e17ff315 	stw	r5,-52(fp)
  202798:	e03ffb15 	stw	zero,-20(fp)
  20279c:	00800834 	movhi	r2,32
  2027a0:	109fd404 	addi	r2,r2,32592
  2027a4:	10800217 	ldw	r2,8(r2)
  2027a8:	e0bffa15 	stw	r2,-24(fp)
  2027ac:	e0bffa17 	ldw	r2,-24(fp)
  2027b0:	10c00117 	ldw	r3,4(r2)
  2027b4:	00bfff04 	movi	r2,-4
  2027b8:	1884703a 	and	r2,r3,r2
  2027bc:	e0bff915 	stw	r2,-28(fp)
  2027c0:	e0fffa17 	ldw	r3,-24(fp)
  2027c4:	e0bff917 	ldw	r2,-28(fp)
  2027c8:	1885883a 	add	r2,r3,r2
  2027cc:	e0bff815 	stw	r2,-32(fp)
  2027d0:	d0e61c17 	ldw	r3,-26512(gp)
  2027d4:	e0bff317 	ldw	r2,-52(fp)
  2027d8:	1885883a 	add	r2,r3,r2
  2027dc:	10800404 	addi	r2,r2,16
  2027e0:	e0bffc15 	stw	r2,-16(fp)
  2027e4:	00840004 	movi	r2,4096
  2027e8:	e0bff715 	stw	r2,-36(fp)
  2027ec:	d0a00217 	ldw	r2,-32760(gp)
  2027f0:	10bfffe0 	cmpeqi	r2,r2,-1
  2027f4:	1000081e 	bne	r2,zero,202818 <malloc_extend_top+0x98>
  2027f8:	e0fff717 	ldw	r3,-36(fp)
  2027fc:	e0bffc17 	ldw	r2,-16(fp)
  202800:	1885883a 	add	r2,r3,r2
  202804:	10ffffc4 	addi	r3,r2,-1
  202808:	e0bff717 	ldw	r2,-36(fp)
  20280c:	0085c83a 	sub	r2,zero,r2
  202810:	1884703a 	and	r2,r3,r2
  202814:	e0bffc15 	stw	r2,-16(fp)
  202818:	e0bffc17 	ldw	r2,-16(fp)
  20281c:	100b883a 	mov	r5,r2
  202820:	e13ff417 	ldw	r4,-48(fp)
  202824:	0204b300 	call	204b30 <_sbrk_r>
  202828:	e0bfff15 	stw	r2,-4(fp)
  20282c:	e0bfff17 	ldw	r2,-4(fp)
  202830:	10bfffe0 	cmpeqi	r2,r2,-1
  202834:	1000bd1e 	bne	r2,zero,202b2c <malloc_extend_top+0x3ac>
  202838:	e0ffff17 	ldw	r3,-4(fp)
  20283c:	e0bff817 	ldw	r2,-32(fp)
  202840:	1880042e 	bgeu	r3,r2,202854 <malloc_extend_top+0xd4>
  202844:	00800834 	movhi	r2,32
  202848:	109fd404 	addi	r2,r2,32592
  20284c:	e0fffa17 	ldw	r3,-24(fp)
  202850:	1880b61e 	bne	r3,r2,202b2c <malloc_extend_top+0x3ac>
  202854:	00800874 	movhi	r2,33
  202858:	10ac0017 	ldw	r2,-20480(r2)
  20285c:	1007883a 	mov	r3,r2
  202860:	e0bffc17 	ldw	r2,-16(fp)
  202864:	1885883a 	add	r2,r3,r2
  202868:	1007883a 	mov	r3,r2
  20286c:	00800874 	movhi	r2,33
  202870:	10ec0015 	stw	r3,-20480(r2)
  202874:	e0ffff17 	ldw	r3,-4(fp)
  202878:	e0bff817 	ldw	r2,-32(fp)
  20287c:	1880101e 	bne	r3,r2,2028c0 <malloc_extend_top+0x140>
  202880:	e0bff717 	ldw	r2,-36(fp)
  202884:	10ffffc4 	addi	r3,r2,-1
  202888:	e0bff817 	ldw	r2,-32(fp)
  20288c:	1884703a 	and	r2,r3,r2
  202890:	10000b1e 	bne	r2,zero,2028c0 <malloc_extend_top+0x140>
  202894:	e0fffc17 	ldw	r3,-16(fp)
  202898:	e0bff917 	ldw	r2,-28(fp)
  20289c:	1885883a 	add	r2,r3,r2
  2028a0:	e0bff615 	stw	r2,-40(fp)
  2028a4:	00800834 	movhi	r2,32
  2028a8:	109fd404 	addi	r2,r2,32592
  2028ac:	10800217 	ldw	r2,8(r2)
  2028b0:	e0fff617 	ldw	r3,-40(fp)
  2028b4:	18c00054 	ori	r3,r3,1
  2028b8:	10c00115 	stw	r3,4(r2)
  2028bc:	00008a06 	br	202ae8 <malloc_extend_top+0x368>
  2028c0:	d0a00217 	ldw	r2,-32760(gp)
  2028c4:	10bfffd8 	cmpnei	r2,r2,-1
  2028c8:	1000031e 	bne	r2,zero,2028d8 <malloc_extend_top+0x158>
  2028cc:	e0bfff17 	ldw	r2,-4(fp)
  2028d0:	d0a00215 	stw	r2,-32760(gp)
  2028d4:	00000806 	br	2028f8 <malloc_extend_top+0x178>
  2028d8:	00800874 	movhi	r2,33
  2028dc:	10ec0017 	ldw	r3,-20480(r2)
  2028e0:	e13fff17 	ldw	r4,-4(fp)
  2028e4:	e0bff817 	ldw	r2,-32(fp)
  2028e8:	2085c83a 	sub	r2,r4,r2
  2028ec:	1887883a 	add	r3,r3,r2
  2028f0:	00800874 	movhi	r2,33
  2028f4:	10ec0015 	stw	r3,-20480(r2)
  2028f8:	e0bfff17 	ldw	r2,-4(fp)
  2028fc:	10800204 	addi	r2,r2,8
  202900:	108001cc 	andi	r2,r2,7
  202904:	e0bff515 	stw	r2,-44(fp)
  202908:	e0bff517 	ldw	r2,-44(fp)
  20290c:	10000926 	beq	r2,zero,202934 <malloc_extend_top+0x1b4>
  202910:	00c00204 	movi	r3,8
  202914:	e0bff517 	ldw	r2,-44(fp)
  202918:	1885c83a 	sub	r2,r3,r2
  20291c:	e0bffe15 	stw	r2,-8(fp)
  202920:	e0ffff17 	ldw	r3,-4(fp)
  202924:	e0bffe17 	ldw	r2,-8(fp)
  202928:	1885883a 	add	r2,r3,r2
  20292c:	e0bfff15 	stw	r2,-4(fp)
  202930:	00000106 	br	202938 <malloc_extend_top+0x1b8>
  202934:	e03ffe15 	stw	zero,-8(fp)
  202938:	e0ffff17 	ldw	r3,-4(fp)
  20293c:	e0bffc17 	ldw	r2,-16(fp)
  202940:	1885883a 	add	r2,r3,r2
  202944:	1007883a 	mov	r3,r2
  202948:	e0bff717 	ldw	r2,-36(fp)
  20294c:	10bfffc4 	addi	r2,r2,-1
  202950:	1884703a 	and	r2,r3,r2
  202954:	e0fff717 	ldw	r3,-36(fp)
  202958:	1885c83a 	sub	r2,r3,r2
  20295c:	e0fffe17 	ldw	r3,-8(fp)
  202960:	1885883a 	add	r2,r3,r2
  202964:	e0bffe15 	stw	r2,-8(fp)
  202968:	e0bff717 	ldw	r2,-36(fp)
  20296c:	10bfffc4 	addi	r2,r2,-1
  202970:	e0fffe17 	ldw	r3,-8(fp)
  202974:	1884703a 	and	r2,r3,r2
  202978:	e0bffe15 	stw	r2,-8(fp)
  20297c:	e0bffe17 	ldw	r2,-8(fp)
  202980:	100b883a 	mov	r5,r2
  202984:	e13ff417 	ldw	r4,-48(fp)
  202988:	0204b300 	call	204b30 <_sbrk_r>
  20298c:	e0bffd15 	stw	r2,-12(fp)
  202990:	e0bffd17 	ldw	r2,-12(fp)
  202994:	10bfffd8 	cmpnei	r2,r2,-1
  202998:	10000e1e 	bne	r2,zero,2029d4 <malloc_extend_top+0x254>
  20299c:	e03ffe15 	stw	zero,-8(fp)
  2029a0:	00800044 	movi	r2,1
  2029a4:	e0bffb15 	stw	r2,-20(fp)
  2029a8:	e0ffff17 	ldw	r3,-4(fp)
  2029ac:	e0bffc17 	ldw	r2,-16(fp)
  2029b0:	1885883a 	add	r2,r3,r2
  2029b4:	e0bffd15 	stw	r2,-12(fp)
  2029b8:	e0bff517 	ldw	r2,-44(fp)
  2029bc:	10000526 	beq	r2,zero,2029d4 <malloc_extend_top+0x254>
  2029c0:	e0bff517 	ldw	r2,-44(fp)
  2029c4:	10bffe04 	addi	r2,r2,-8
  2029c8:	e0fffd17 	ldw	r3,-12(fp)
  2029cc:	1885883a 	add	r2,r3,r2
  2029d0:	e0bffd15 	stw	r2,-12(fp)
  2029d4:	00800874 	movhi	r2,33
  2029d8:	10ac0017 	ldw	r2,-20480(r2)
  2029dc:	1007883a 	mov	r3,r2
  2029e0:	e0bffe17 	ldw	r2,-8(fp)
  2029e4:	1885883a 	add	r2,r3,r2
  2029e8:	1007883a 	mov	r3,r2
  2029ec:	00800874 	movhi	r2,33
  2029f0:	10ec0015 	stw	r3,-20480(r2)
  2029f4:	00800834 	movhi	r2,32
  2029f8:	109fd404 	addi	r2,r2,32592
  2029fc:	e0ffff17 	ldw	r3,-4(fp)
  202a00:	10c00215 	stw	r3,8(r2)
  202a04:	e0fffd17 	ldw	r3,-12(fp)
  202a08:	e0bfff17 	ldw	r2,-4(fp)
  202a0c:	1885c83a 	sub	r2,r3,r2
  202a10:	1007883a 	mov	r3,r2
  202a14:	e0bffe17 	ldw	r2,-8(fp)
  202a18:	10c5883a 	add	r2,r2,r3
  202a1c:	e0bff615 	stw	r2,-40(fp)
  202a20:	00800834 	movhi	r2,32
  202a24:	109fd404 	addi	r2,r2,32592
  202a28:	10800217 	ldw	r2,8(r2)
  202a2c:	e0fff617 	ldw	r3,-40(fp)
  202a30:	18c00054 	ori	r3,r3,1
  202a34:	10c00115 	stw	r3,4(r2)
  202a38:	00800834 	movhi	r2,32
  202a3c:	109fd404 	addi	r2,r2,32592
  202a40:	e0fffa17 	ldw	r3,-24(fp)
  202a44:	18802826 	beq	r3,r2,202ae8 <malloc_extend_top+0x368>
  202a48:	e0bff917 	ldw	r2,-28(fp)
  202a4c:	10800428 	cmpgeui	r2,r2,16
  202a50:	1000061e 	bne	r2,zero,202a6c <malloc_extend_top+0x2ec>
  202a54:	00800834 	movhi	r2,32
  202a58:	109fd404 	addi	r2,r2,32592
  202a5c:	10800217 	ldw	r2,8(r2)
  202a60:	00c00044 	movi	r3,1
  202a64:	10c00115 	stw	r3,4(r2)
  202a68:	00003106 	br	202b30 <malloc_extend_top+0x3b0>
  202a6c:	e0bff917 	ldw	r2,-28(fp)
  202a70:	10fffd04 	addi	r3,r2,-12
  202a74:	00bffe04 	movi	r2,-8
  202a78:	1884703a 	and	r2,r3,r2
  202a7c:	e0bff915 	stw	r2,-28(fp)
  202a80:	e0bffa17 	ldw	r2,-24(fp)
  202a84:	10800117 	ldw	r2,4(r2)
  202a88:	10c0004c 	andi	r3,r2,1
  202a8c:	e0bff917 	ldw	r2,-28(fp)
  202a90:	1886b03a 	or	r3,r3,r2
  202a94:	e0bffa17 	ldw	r2,-24(fp)
  202a98:	10c00115 	stw	r3,4(r2)
  202a9c:	e0fffa17 	ldw	r3,-24(fp)
  202aa0:	e0bff917 	ldw	r2,-28(fp)
  202aa4:	1885883a 	add	r2,r3,r2
  202aa8:	00c00144 	movi	r3,5
  202aac:	10c00115 	stw	r3,4(r2)
  202ab0:	e0bff917 	ldw	r2,-28(fp)
  202ab4:	10800104 	addi	r2,r2,4
  202ab8:	e0fffa17 	ldw	r3,-24(fp)
  202abc:	1885883a 	add	r2,r3,r2
  202ac0:	00c00144 	movi	r3,5
  202ac4:	10c00115 	stw	r3,4(r2)
  202ac8:	e0bff917 	ldw	r2,-28(fp)
  202acc:	10800430 	cmpltui	r2,r2,16
  202ad0:	1000051e 	bne	r2,zero,202ae8 <malloc_extend_top+0x368>
  202ad4:	e0bffa17 	ldw	r2,-24(fp)
  202ad8:	10800204 	addi	r2,r2,8
  202adc:	100b883a 	mov	r5,r2
  202ae0:	e13ff417 	ldw	r4,-48(fp)
  202ae4:	02020680 	call	202068 <_free_r>
  202ae8:	00800874 	movhi	r2,33
  202aec:	10ac0017 	ldw	r2,-20480(r2)
  202af0:	1007883a 	mov	r3,r2
  202af4:	d0a61d17 	ldw	r2,-26508(gp)
  202af8:	10c0032e 	bgeu	r2,r3,202b08 <malloc_extend_top+0x388>
  202afc:	00800874 	movhi	r2,33
  202b00:	10ac0017 	ldw	r2,-20480(r2)
  202b04:	d0a61d15 	stw	r2,-26508(gp)
  202b08:	00800874 	movhi	r2,33
  202b0c:	10ac0017 	ldw	r2,-20480(r2)
  202b10:	1007883a 	mov	r3,r2
  202b14:	d0a61e17 	ldw	r2,-26504(gp)
  202b18:	10c0052e 	bgeu	r2,r3,202b30 <malloc_extend_top+0x3b0>
  202b1c:	00800874 	movhi	r2,33
  202b20:	10ac0017 	ldw	r2,-20480(r2)
  202b24:	d0a61e15 	stw	r2,-26504(gp)
  202b28:	00000106 	br	202b30 <malloc_extend_top+0x3b0>
  202b2c:	0001883a 	nop
  202b30:	e037883a 	mov	sp,fp
  202b34:	dfc00117 	ldw	ra,4(sp)
  202b38:	df000017 	ldw	fp,0(sp)
  202b3c:	dec00204 	addi	sp,sp,8
  202b40:	f800283a 	ret

00202b44 <_malloc_r>:
  202b44:	deffef04 	addi	sp,sp,-68
  202b48:	dfc01015 	stw	ra,64(sp)
  202b4c:	df000f15 	stw	fp,60(sp)
  202b50:	df000f04 	addi	fp,sp,60
  202b54:	e13ff215 	stw	r4,-56(fp)
  202b58:	e17ff115 	stw	r5,-60(fp)
  202b5c:	e0bff117 	ldw	r2,-60(fp)
  202b60:	108002c4 	addi	r2,r2,11
  202b64:	108005f0 	cmpltui	r2,r2,23
  202b68:	1000051e 	bne	r2,zero,202b80 <_malloc_r+0x3c>
  202b6c:	e0bff117 	ldw	r2,-60(fp)
  202b70:	10c002c4 	addi	r3,r2,11
  202b74:	00bffe04 	movi	r2,-8
  202b78:	1884703a 	and	r2,r3,r2
  202b7c:	00000106 	br	202b84 <_malloc_r+0x40>
  202b80:	00800404 	movi	r2,16
  202b84:	e0bff615 	stw	r2,-40(fp)
  202b88:	e0bff617 	ldw	r2,-40(fp)
  202b8c:	10000316 	blt	r2,zero,202b9c <_malloc_r+0x58>
  202b90:	e0fff617 	ldw	r3,-40(fp)
  202b94:	e0bff117 	ldw	r2,-60(fp)
  202b98:	1880052e 	bgeu	r3,r2,202bb0 <_malloc_r+0x6c>
  202b9c:	e0bff217 	ldw	r2,-56(fp)
  202ba0:	00c00304 	movi	r3,12
  202ba4:	10c00015 	stw	r3,0(r2)
  202ba8:	0005883a 	mov	r2,zero
  202bac:	0002bb06 	br	20369c <_malloc_r+0xb58>
  202bb0:	e13ff217 	ldw	r4,-56(fp)
  202bb4:	02054880 	call	205488 <__malloc_lock>
  202bb8:	e0bff617 	ldw	r2,-40(fp)
  202bbc:	10807e28 	cmpgeui	r2,r2,504
  202bc0:	10003e1e 	bne	r2,zero,202cbc <_malloc_r+0x178>
  202bc4:	e0bff617 	ldw	r2,-40(fp)
  202bc8:	1004d0fa 	srli	r2,r2,3
  202bcc:	e0bffe15 	stw	r2,-8(fp)
  202bd0:	e0bffe17 	ldw	r2,-8(fp)
  202bd4:	10800044 	addi	r2,r2,1
  202bd8:	1085883a 	add	r2,r2,r2
  202bdc:	100690ba 	slli	r3,r2,2
  202be0:	00800834 	movhi	r2,32
  202be4:	109fd404 	addi	r2,r2,32592
  202be8:	1885883a 	add	r2,r3,r2
  202bec:	10bffe04 	addi	r2,r2,-8
  202bf0:	e0bff715 	stw	r2,-36(fp)
  202bf4:	e0bff717 	ldw	r2,-36(fp)
  202bf8:	10800317 	ldw	r2,12(r2)
  202bfc:	e0bfff15 	stw	r2,-4(fp)
  202c00:	e0ffff17 	ldw	r3,-4(fp)
  202c04:	e0bff717 	ldw	r2,-36(fp)
  202c08:	1880061e 	bne	r3,r2,202c24 <_malloc_r+0xe0>
  202c0c:	e0bff717 	ldw	r2,-36(fp)
  202c10:	10800204 	addi	r2,r2,8
  202c14:	e0bff715 	stw	r2,-36(fp)
  202c18:	e0bff717 	ldw	r2,-36(fp)
  202c1c:	10800317 	ldw	r2,12(r2)
  202c20:	e0bfff15 	stw	r2,-4(fp)
  202c24:	e0ffff17 	ldw	r3,-4(fp)
  202c28:	e0bff717 	ldw	r2,-36(fp)
  202c2c:	18801f26 	beq	r3,r2,202cac <_malloc_r+0x168>
  202c30:	e0bfff17 	ldw	r2,-4(fp)
  202c34:	10c00117 	ldw	r3,4(r2)
  202c38:	00bfff04 	movi	r2,-4
  202c3c:	1884703a 	and	r2,r3,r2
  202c40:	e0bff515 	stw	r2,-44(fp)
  202c44:	e0bfff17 	ldw	r2,-4(fp)
  202c48:	10800317 	ldw	r2,12(r2)
  202c4c:	e0bff815 	stw	r2,-32(fp)
  202c50:	e0bfff17 	ldw	r2,-4(fp)
  202c54:	10800217 	ldw	r2,8(r2)
  202c58:	e0bff915 	stw	r2,-28(fp)
  202c5c:	e0bff917 	ldw	r2,-28(fp)
  202c60:	e0fff817 	ldw	r3,-32(fp)
  202c64:	10c00315 	stw	r3,12(r2)
  202c68:	e0bff817 	ldw	r2,-32(fp)
  202c6c:	e0fff917 	ldw	r3,-28(fp)
  202c70:	10c00215 	stw	r3,8(r2)
  202c74:	e0ffff17 	ldw	r3,-4(fp)
  202c78:	e0bff517 	ldw	r2,-44(fp)
  202c7c:	1885883a 	add	r2,r3,r2
  202c80:	10c00117 	ldw	r3,4(r2)
  202c84:	e13fff17 	ldw	r4,-4(fp)
  202c88:	e0bff517 	ldw	r2,-44(fp)
  202c8c:	2085883a 	add	r2,r4,r2
  202c90:	18c00054 	ori	r3,r3,1
  202c94:	10c00115 	stw	r3,4(r2)
  202c98:	e13ff217 	ldw	r4,-56(fp)
  202c9c:	02054ac0 	call	2054ac <__malloc_unlock>
  202ca0:	e0bfff17 	ldw	r2,-4(fp)
  202ca4:	10800204 	addi	r2,r2,8
  202ca8:	00027c06 	br	20369c <_malloc_r+0xb58>
  202cac:	e0bffe17 	ldw	r2,-8(fp)
  202cb0:	10800084 	addi	r2,r2,2
  202cb4:	e0bffe15 	stw	r2,-8(fp)
  202cb8:	00007206 	br	202e84 <_malloc_r+0x340>
  202cbc:	e0bff617 	ldw	r2,-40(fp)
  202cc0:	1004d27a 	srli	r2,r2,9
  202cc4:	1000031e 	bne	r2,zero,202cd4 <_malloc_r+0x190>
  202cc8:	e0bff617 	ldw	r2,-40(fp)
  202ccc:	1004d0fa 	srli	r2,r2,3
  202cd0:	00002906 	br	202d78 <_malloc_r+0x234>
  202cd4:	e0bff617 	ldw	r2,-40(fp)
  202cd8:	1004d27a 	srli	r2,r2,9
  202cdc:	10800168 	cmpgeui	r2,r2,5
  202ce0:	1000041e 	bne	r2,zero,202cf4 <_malloc_r+0x1b0>
  202ce4:	e0bff617 	ldw	r2,-40(fp)
  202ce8:	1004d1ba 	srli	r2,r2,6
  202cec:	10800e04 	addi	r2,r2,56
  202cf0:	00002106 	br	202d78 <_malloc_r+0x234>
  202cf4:	e0bff617 	ldw	r2,-40(fp)
  202cf8:	1004d27a 	srli	r2,r2,9
  202cfc:	10800568 	cmpgeui	r2,r2,21
  202d00:	1000041e 	bne	r2,zero,202d14 <_malloc_r+0x1d0>
  202d04:	e0bff617 	ldw	r2,-40(fp)
  202d08:	1004d27a 	srli	r2,r2,9
  202d0c:	108016c4 	addi	r2,r2,91
  202d10:	00001906 	br	202d78 <_malloc_r+0x234>
  202d14:	e0bff617 	ldw	r2,-40(fp)
  202d18:	1004d27a 	srli	r2,r2,9
  202d1c:	10801568 	cmpgeui	r2,r2,85
  202d20:	1000041e 	bne	r2,zero,202d34 <_malloc_r+0x1f0>
  202d24:	e0bff617 	ldw	r2,-40(fp)
  202d28:	1004d33a 	srli	r2,r2,12
  202d2c:	10801b84 	addi	r2,r2,110
  202d30:	00001106 	br	202d78 <_malloc_r+0x234>
  202d34:	e0bff617 	ldw	r2,-40(fp)
  202d38:	1004d27a 	srli	r2,r2,9
  202d3c:	10805568 	cmpgeui	r2,r2,341
  202d40:	1000041e 	bne	r2,zero,202d54 <_malloc_r+0x210>
  202d44:	e0bff617 	ldw	r2,-40(fp)
  202d48:	1004d3fa 	srli	r2,r2,15
  202d4c:	10801dc4 	addi	r2,r2,119
  202d50:	00000906 	br	202d78 <_malloc_r+0x234>
  202d54:	e0bff617 	ldw	r2,-40(fp)
  202d58:	1004d27a 	srli	r2,r2,9
  202d5c:	10815568 	cmpgeui	r2,r2,1365
  202d60:	1000041e 	bne	r2,zero,202d74 <_malloc_r+0x230>
  202d64:	e0bff617 	ldw	r2,-40(fp)
  202d68:	1004d4ba 	srli	r2,r2,18
  202d6c:	10801f04 	addi	r2,r2,124
  202d70:	00000106 	br	202d78 <_malloc_r+0x234>
  202d74:	00801f84 	movi	r2,126
  202d78:	e0bffe15 	stw	r2,-8(fp)
  202d7c:	e0bffe17 	ldw	r2,-8(fp)
  202d80:	10800044 	addi	r2,r2,1
  202d84:	1085883a 	add	r2,r2,r2
  202d88:	100690ba 	slli	r3,r2,2
  202d8c:	00800834 	movhi	r2,32
  202d90:	109fd404 	addi	r2,r2,32592
  202d94:	1885883a 	add	r2,r3,r2
  202d98:	10bffe04 	addi	r2,r2,-8
  202d9c:	e0bffd15 	stw	r2,-12(fp)
  202da0:	e0bffd17 	ldw	r2,-12(fp)
  202da4:	10800317 	ldw	r2,12(r2)
  202da8:	e0bfff15 	stw	r2,-4(fp)
  202dac:	00002f06 	br	202e6c <_malloc_r+0x328>
  202db0:	e0bfff17 	ldw	r2,-4(fp)
  202db4:	10c00117 	ldw	r3,4(r2)
  202db8:	00bfff04 	movi	r2,-4
  202dbc:	1884703a 	and	r2,r3,r2
  202dc0:	e0bff515 	stw	r2,-44(fp)
  202dc4:	e0fff517 	ldw	r3,-44(fp)
  202dc8:	e0bff617 	ldw	r2,-40(fp)
  202dcc:	1885c83a 	sub	r2,r3,r2
  202dd0:	e0bffc15 	stw	r2,-16(fp)
  202dd4:	e0bffc17 	ldw	r2,-16(fp)
  202dd8:	10800410 	cmplti	r2,r2,16
  202ddc:	1000041e 	bne	r2,zero,202df0 <_malloc_r+0x2ac>
  202de0:	e0bffe17 	ldw	r2,-8(fp)
  202de4:	10bfffc4 	addi	r2,r2,-1
  202de8:	e0bffe15 	stw	r2,-8(fp)
  202dec:	00002206 	br	202e78 <_malloc_r+0x334>
  202df0:	e0bffc17 	ldw	r2,-16(fp)
  202df4:	10001a16 	blt	r2,zero,202e60 <_malloc_r+0x31c>
  202df8:	e0bfff17 	ldw	r2,-4(fp)
  202dfc:	10800317 	ldw	r2,12(r2)
  202e00:	e0bff815 	stw	r2,-32(fp)
  202e04:	e0bfff17 	ldw	r2,-4(fp)
  202e08:	10800217 	ldw	r2,8(r2)
  202e0c:	e0bff915 	stw	r2,-28(fp)
  202e10:	e0bff917 	ldw	r2,-28(fp)
  202e14:	e0fff817 	ldw	r3,-32(fp)
  202e18:	10c00315 	stw	r3,12(r2)
  202e1c:	e0bff817 	ldw	r2,-32(fp)
  202e20:	e0fff917 	ldw	r3,-28(fp)
  202e24:	10c00215 	stw	r3,8(r2)
  202e28:	e0ffff17 	ldw	r3,-4(fp)
  202e2c:	e0bff517 	ldw	r2,-44(fp)
  202e30:	1885883a 	add	r2,r3,r2
  202e34:	10c00117 	ldw	r3,4(r2)
  202e38:	e13fff17 	ldw	r4,-4(fp)
  202e3c:	e0bff517 	ldw	r2,-44(fp)
  202e40:	2085883a 	add	r2,r4,r2
  202e44:	18c00054 	ori	r3,r3,1
  202e48:	10c00115 	stw	r3,4(r2)
  202e4c:	e13ff217 	ldw	r4,-56(fp)
  202e50:	02054ac0 	call	2054ac <__malloc_unlock>
  202e54:	e0bfff17 	ldw	r2,-4(fp)
  202e58:	10800204 	addi	r2,r2,8
  202e5c:	00020f06 	br	20369c <_malloc_r+0xb58>
  202e60:	e0bfff17 	ldw	r2,-4(fp)
  202e64:	10800317 	ldw	r2,12(r2)
  202e68:	e0bfff15 	stw	r2,-4(fp)
  202e6c:	e0ffff17 	ldw	r3,-4(fp)
  202e70:	e0bffd17 	ldw	r2,-12(fp)
  202e74:	18bfce1e 	bne	r3,r2,202db0 <_malloc_r+0x26c>
  202e78:	e0bffe17 	ldw	r2,-8(fp)
  202e7c:	10800044 	addi	r2,r2,1
  202e80:	e0bffe15 	stw	r2,-8(fp)
  202e84:	00800834 	movhi	r2,32
  202e88:	109fd604 	addi	r2,r2,32600
  202e8c:	10800217 	ldw	r2,8(r2)
  202e90:	e0bfff15 	stw	r2,-4(fp)
  202e94:	00800834 	movhi	r2,32
  202e98:	109fd604 	addi	r2,r2,32600
  202e9c:	e0ffff17 	ldw	r3,-4(fp)
  202ea0:	1880e426 	beq	r3,r2,203234 <_malloc_r+0x6f0>
  202ea4:	e0bfff17 	ldw	r2,-4(fp)
  202ea8:	10c00117 	ldw	r3,4(r2)
  202eac:	00bfff04 	movi	r2,-4
  202eb0:	1884703a 	and	r2,r3,r2
  202eb4:	e0bff515 	stw	r2,-44(fp)
  202eb8:	e0fff517 	ldw	r3,-44(fp)
  202ebc:	e0bff617 	ldw	r2,-40(fp)
  202ec0:	1885c83a 	sub	r2,r3,r2
  202ec4:	e0bffc15 	stw	r2,-16(fp)
  202ec8:	e0bffc17 	ldw	r2,-16(fp)
  202ecc:	10800410 	cmplti	r2,r2,16
  202ed0:	1000271e 	bne	r2,zero,202f70 <_malloc_r+0x42c>
  202ed4:	e0ffff17 	ldw	r3,-4(fp)
  202ed8:	e0bff617 	ldw	r2,-40(fp)
  202edc:	1885883a 	add	r2,r3,r2
  202ee0:	e0bff315 	stw	r2,-52(fp)
  202ee4:	e0bff617 	ldw	r2,-40(fp)
  202ee8:	10c00054 	ori	r3,r2,1
  202eec:	e0bfff17 	ldw	r2,-4(fp)
  202ef0:	10c00115 	stw	r3,4(r2)
  202ef4:	00800834 	movhi	r2,32
  202ef8:	109fd604 	addi	r2,r2,32600
  202efc:	e0fff317 	ldw	r3,-52(fp)
  202f00:	10c00315 	stw	r3,12(r2)
  202f04:	00c00834 	movhi	r3,32
  202f08:	18dfd604 	addi	r3,r3,32600
  202f0c:	10800317 	ldw	r2,12(r2)
  202f10:	18800215 	stw	r2,8(r3)
  202f14:	00800834 	movhi	r2,32
  202f18:	109fd604 	addi	r2,r2,32600
  202f1c:	e0fff317 	ldw	r3,-52(fp)
  202f20:	18800315 	stw	r2,12(r3)
  202f24:	e0bff317 	ldw	r2,-52(fp)
  202f28:	10c00317 	ldw	r3,12(r2)
  202f2c:	e0bff317 	ldw	r2,-52(fp)
  202f30:	10c00215 	stw	r3,8(r2)
  202f34:	e0bffc17 	ldw	r2,-16(fp)
  202f38:	10800054 	ori	r2,r2,1
  202f3c:	1007883a 	mov	r3,r2
  202f40:	e0bff317 	ldw	r2,-52(fp)
  202f44:	10c00115 	stw	r3,4(r2)
  202f48:	e0bffc17 	ldw	r2,-16(fp)
  202f4c:	e0fff317 	ldw	r3,-52(fp)
  202f50:	1885883a 	add	r2,r3,r2
  202f54:	e0fffc17 	ldw	r3,-16(fp)
  202f58:	10c00015 	stw	r3,0(r2)
  202f5c:	e13ff217 	ldw	r4,-56(fp)
  202f60:	02054ac0 	call	2054ac <__malloc_unlock>
  202f64:	e0bfff17 	ldw	r2,-4(fp)
  202f68:	10800204 	addi	r2,r2,8
  202f6c:	0001cb06 	br	20369c <_malloc_r+0xb58>
  202f70:	00800834 	movhi	r2,32
  202f74:	109fd604 	addi	r2,r2,32600
  202f78:	00c00834 	movhi	r3,32
  202f7c:	18dfd604 	addi	r3,r3,32600
  202f80:	10c00315 	stw	r3,12(r2)
  202f84:	00c00834 	movhi	r3,32
  202f88:	18dfd604 	addi	r3,r3,32600
  202f8c:	10800317 	ldw	r2,12(r2)
  202f90:	18800215 	stw	r2,8(r3)
  202f94:	e0bffc17 	ldw	r2,-16(fp)
  202f98:	10000e16 	blt	r2,zero,202fd4 <_malloc_r+0x490>
  202f9c:	e0ffff17 	ldw	r3,-4(fp)
  202fa0:	e0bff517 	ldw	r2,-44(fp)
  202fa4:	1885883a 	add	r2,r3,r2
  202fa8:	10c00117 	ldw	r3,4(r2)
  202fac:	e13fff17 	ldw	r4,-4(fp)
  202fb0:	e0bff517 	ldw	r2,-44(fp)
  202fb4:	2085883a 	add	r2,r4,r2
  202fb8:	18c00054 	ori	r3,r3,1
  202fbc:	10c00115 	stw	r3,4(r2)
  202fc0:	e13ff217 	ldw	r4,-56(fp)
  202fc4:	02054ac0 	call	2054ac <__malloc_unlock>
  202fc8:	e0bfff17 	ldw	r2,-4(fp)
  202fcc:	10800204 	addi	r2,r2,8
  202fd0:	0001b206 	br	20369c <_malloc_r+0xb58>
  202fd4:	e0bff517 	ldw	r2,-44(fp)
  202fd8:	10808028 	cmpgeui	r2,r2,512
  202fdc:	10002b1e 	bne	r2,zero,20308c <_malloc_r+0x548>
  202fe0:	e0bff517 	ldw	r2,-44(fp)
  202fe4:	1004d0fa 	srli	r2,r2,3
  202fe8:	e0bff415 	stw	r2,-48(fp)
  202fec:	00800834 	movhi	r2,32
  202ff0:	109fd404 	addi	r2,r2,32592
  202ff4:	11000117 	ldw	r4,4(r2)
  202ff8:	e0bff417 	ldw	r2,-48(fp)
  202ffc:	1000010e 	bge	r2,zero,203004 <_malloc_r+0x4c0>
  203000:	108000c4 	addi	r2,r2,3
  203004:	1005d0ba 	srai	r2,r2,2
  203008:	1007883a 	mov	r3,r2
  20300c:	00800044 	movi	r2,1
  203010:	10c6983a 	sll	r3,r2,r3
  203014:	00800834 	movhi	r2,32
  203018:	109fd404 	addi	r2,r2,32592
  20301c:	20c6b03a 	or	r3,r4,r3
  203020:	10c00115 	stw	r3,4(r2)
  203024:	e0bff417 	ldw	r2,-48(fp)
  203028:	10800044 	addi	r2,r2,1
  20302c:	1085883a 	add	r2,r2,r2
  203030:	100690ba 	slli	r3,r2,2
  203034:	00800834 	movhi	r2,32
  203038:	109fd404 	addi	r2,r2,32592
  20303c:	1885883a 	add	r2,r3,r2
  203040:	10bffe04 	addi	r2,r2,-8
  203044:	e0bff815 	stw	r2,-32(fp)
  203048:	e0bff817 	ldw	r2,-32(fp)
  20304c:	10800217 	ldw	r2,8(r2)
  203050:	e0bff915 	stw	r2,-28(fp)
  203054:	e0bfff17 	ldw	r2,-4(fp)
  203058:	e0fff817 	ldw	r3,-32(fp)
  20305c:	10c00315 	stw	r3,12(r2)
  203060:	e0bfff17 	ldw	r2,-4(fp)
  203064:	e0fff917 	ldw	r3,-28(fp)
  203068:	10c00215 	stw	r3,8(r2)
  20306c:	e0bff817 	ldw	r2,-32(fp)
  203070:	e0ffff17 	ldw	r3,-4(fp)
  203074:	10c00215 	stw	r3,8(r2)
  203078:	e0bff817 	ldw	r2,-32(fp)
  20307c:	10c00217 	ldw	r3,8(r2)
  203080:	e0bff917 	ldw	r2,-28(fp)
  203084:	10c00315 	stw	r3,12(r2)
  203088:	00006a06 	br	203234 <_malloc_r+0x6f0>
  20308c:	e0bff517 	ldw	r2,-44(fp)
  203090:	1004d27a 	srli	r2,r2,9
  203094:	1000031e 	bne	r2,zero,2030a4 <_malloc_r+0x560>
  203098:	e0bff517 	ldw	r2,-44(fp)
  20309c:	1004d0fa 	srli	r2,r2,3
  2030a0:	00002906 	br	203148 <_malloc_r+0x604>
  2030a4:	e0bff517 	ldw	r2,-44(fp)
  2030a8:	1004d27a 	srli	r2,r2,9
  2030ac:	10800168 	cmpgeui	r2,r2,5
  2030b0:	1000041e 	bne	r2,zero,2030c4 <_malloc_r+0x580>
  2030b4:	e0bff517 	ldw	r2,-44(fp)
  2030b8:	1004d1ba 	srli	r2,r2,6
  2030bc:	10800e04 	addi	r2,r2,56
  2030c0:	00002106 	br	203148 <_malloc_r+0x604>
  2030c4:	e0bff517 	ldw	r2,-44(fp)
  2030c8:	1004d27a 	srli	r2,r2,9
  2030cc:	10800568 	cmpgeui	r2,r2,21
  2030d0:	1000041e 	bne	r2,zero,2030e4 <_malloc_r+0x5a0>
  2030d4:	e0bff517 	ldw	r2,-44(fp)
  2030d8:	1004d27a 	srli	r2,r2,9
  2030dc:	108016c4 	addi	r2,r2,91
  2030e0:	00001906 	br	203148 <_malloc_r+0x604>
  2030e4:	e0bff517 	ldw	r2,-44(fp)
  2030e8:	1004d27a 	srli	r2,r2,9
  2030ec:	10801568 	cmpgeui	r2,r2,85
  2030f0:	1000041e 	bne	r2,zero,203104 <_malloc_r+0x5c0>
  2030f4:	e0bff517 	ldw	r2,-44(fp)
  2030f8:	1004d33a 	srli	r2,r2,12
  2030fc:	10801b84 	addi	r2,r2,110
  203100:	00001106 	br	203148 <_malloc_r+0x604>
  203104:	e0bff517 	ldw	r2,-44(fp)
  203108:	1004d27a 	srli	r2,r2,9
  20310c:	10805568 	cmpgeui	r2,r2,341
  203110:	1000041e 	bne	r2,zero,203124 <_malloc_r+0x5e0>
  203114:	e0bff517 	ldw	r2,-44(fp)
  203118:	1004d3fa 	srli	r2,r2,15
  20311c:	10801dc4 	addi	r2,r2,119
  203120:	00000906 	br	203148 <_malloc_r+0x604>
  203124:	e0bff517 	ldw	r2,-44(fp)
  203128:	1004d27a 	srli	r2,r2,9
  20312c:	10815568 	cmpgeui	r2,r2,1365
  203130:	1000041e 	bne	r2,zero,203144 <_malloc_r+0x600>
  203134:	e0bff517 	ldw	r2,-44(fp)
  203138:	1004d4ba 	srli	r2,r2,18
  20313c:	10801f04 	addi	r2,r2,124
  203140:	00000106 	br	203148 <_malloc_r+0x604>
  203144:	00801f84 	movi	r2,126
  203148:	e0bff415 	stw	r2,-48(fp)
  20314c:	e0bff417 	ldw	r2,-48(fp)
  203150:	10800044 	addi	r2,r2,1
  203154:	1085883a 	add	r2,r2,r2
  203158:	100690ba 	slli	r3,r2,2
  20315c:	00800834 	movhi	r2,32
  203160:	109fd404 	addi	r2,r2,32592
  203164:	1885883a 	add	r2,r3,r2
  203168:	10bffe04 	addi	r2,r2,-8
  20316c:	e0bff815 	stw	r2,-32(fp)
  203170:	e0bff817 	ldw	r2,-32(fp)
  203174:	10800217 	ldw	r2,8(r2)
  203178:	e0bff915 	stw	r2,-28(fp)
  20317c:	e0fff917 	ldw	r3,-28(fp)
  203180:	e0bff817 	ldw	r2,-32(fp)
  203184:	1880121e 	bne	r3,r2,2031d0 <_malloc_r+0x68c>
  203188:	00800834 	movhi	r2,32
  20318c:	109fd404 	addi	r2,r2,32592
  203190:	11000117 	ldw	r4,4(r2)
  203194:	e0bff417 	ldw	r2,-48(fp)
  203198:	1000010e 	bge	r2,zero,2031a0 <_malloc_r+0x65c>
  20319c:	108000c4 	addi	r2,r2,3
  2031a0:	1005d0ba 	srai	r2,r2,2
  2031a4:	1007883a 	mov	r3,r2
  2031a8:	00800044 	movi	r2,1
  2031ac:	10c6983a 	sll	r3,r2,r3
  2031b0:	00800834 	movhi	r2,32
  2031b4:	109fd404 	addi	r2,r2,32592
  2031b8:	20c6b03a 	or	r3,r4,r3
  2031bc:	10c00115 	stw	r3,4(r2)
  2031c0:	00000f06 	br	203200 <_malloc_r+0x6bc>
  2031c4:	e0bff917 	ldw	r2,-28(fp)
  2031c8:	10800217 	ldw	r2,8(r2)
  2031cc:	e0bff915 	stw	r2,-28(fp)
  2031d0:	e0fff917 	ldw	r3,-28(fp)
  2031d4:	e0bff817 	ldw	r2,-32(fp)
  2031d8:	18800626 	beq	r3,r2,2031f4 <_malloc_r+0x6b0>
  2031dc:	e0bff917 	ldw	r2,-28(fp)
  2031e0:	10c00117 	ldw	r3,4(r2)
  2031e4:	00bfff04 	movi	r2,-4
  2031e8:	1884703a 	and	r2,r3,r2
  2031ec:	e0fff517 	ldw	r3,-44(fp)
  2031f0:	18bff436 	bltu	r3,r2,2031c4 <_malloc_r+0x680>
  2031f4:	e0bff917 	ldw	r2,-28(fp)
  2031f8:	10800317 	ldw	r2,12(r2)
  2031fc:	e0bff815 	stw	r2,-32(fp)
  203200:	e0bfff17 	ldw	r2,-4(fp)
  203204:	e0fff817 	ldw	r3,-32(fp)
  203208:	10c00315 	stw	r3,12(r2)
  20320c:	e0bfff17 	ldw	r2,-4(fp)
  203210:	e0fff917 	ldw	r3,-28(fp)
  203214:	10c00215 	stw	r3,8(r2)
  203218:	e0bff817 	ldw	r2,-32(fp)
  20321c:	e0ffff17 	ldw	r3,-4(fp)
  203220:	10c00215 	stw	r3,8(r2)
  203224:	e0bff817 	ldw	r2,-32(fp)
  203228:	10c00217 	ldw	r3,8(r2)
  20322c:	e0bff917 	ldw	r2,-28(fp)
  203230:	10c00315 	stw	r3,12(r2)
  203234:	e0bffe17 	ldw	r2,-8(fp)
  203238:	1000010e 	bge	r2,zero,203240 <_malloc_r+0x6fc>
  20323c:	108000c4 	addi	r2,r2,3
  203240:	1005d0ba 	srai	r2,r2,2
  203244:	1007883a 	mov	r3,r2
  203248:	00800044 	movi	r2,1
  20324c:	10c4983a 	sll	r2,r2,r3
  203250:	e0bffb15 	stw	r2,-20(fp)
  203254:	00800834 	movhi	r2,32
  203258:	109fd404 	addi	r2,r2,32592
  20325c:	10c00117 	ldw	r3,4(r2)
  203260:	e0bffb17 	ldw	r2,-20(fp)
  203264:	1880c636 	bltu	r3,r2,203580 <_malloc_r+0xa3c>
  203268:	00800834 	movhi	r2,32
  20326c:	109fd404 	addi	r2,r2,32592
  203270:	10c00117 	ldw	r3,4(r2)
  203274:	e0bffb17 	ldw	r2,-20(fp)
  203278:	1884703a 	and	r2,r3,r2
  20327c:	10000126 	beq	r2,zero,203284 <_malloc_r+0x740>
  203280:	00001506 	br	2032d8 <_malloc_r+0x794>
  203284:	e0fffe17 	ldw	r3,-8(fp)
  203288:	00bfff04 	movi	r2,-4
  20328c:	1884703a 	and	r2,r3,r2
  203290:	10800104 	addi	r2,r2,4
  203294:	e0bffe15 	stw	r2,-8(fp)
  203298:	e0bffb17 	ldw	r2,-20(fp)
  20329c:	1085883a 	add	r2,r2,r2
  2032a0:	e0bffb15 	stw	r2,-20(fp)
  2032a4:	00000606 	br	2032c0 <_malloc_r+0x77c>
  2032a8:	e0bffe17 	ldw	r2,-8(fp)
  2032ac:	10800104 	addi	r2,r2,4
  2032b0:	e0bffe15 	stw	r2,-8(fp)
  2032b4:	e0bffb17 	ldw	r2,-20(fp)
  2032b8:	1085883a 	add	r2,r2,r2
  2032bc:	e0bffb15 	stw	r2,-20(fp)
  2032c0:	00800834 	movhi	r2,32
  2032c4:	109fd404 	addi	r2,r2,32592
  2032c8:	10c00117 	ldw	r3,4(r2)
  2032cc:	e0bffb17 	ldw	r2,-20(fp)
  2032d0:	1884703a 	and	r2,r3,r2
  2032d4:	103ff426 	beq	r2,zero,2032a8 <_malloc_r+0x764>
  2032d8:	e0bffe17 	ldw	r2,-8(fp)
  2032dc:	e0bffa15 	stw	r2,-24(fp)
  2032e0:	e0bffe17 	ldw	r2,-8(fp)
  2032e4:	10800044 	addi	r2,r2,1
  2032e8:	1085883a 	add	r2,r2,r2
  2032ec:	100690ba 	slli	r3,r2,2
  2032f0:	00800834 	movhi	r2,32
  2032f4:	109fd404 	addi	r2,r2,32592
  2032f8:	1885883a 	add	r2,r3,r2
  2032fc:	10bffe04 	addi	r2,r2,-8
  203300:	e0bffd15 	stw	r2,-12(fp)
  203304:	e0bffd17 	ldw	r2,-12(fp)
  203308:	e0bff715 	stw	r2,-36(fp)
  20330c:	e0bffd17 	ldw	r2,-12(fp)
  203310:	10800317 	ldw	r2,12(r2)
  203314:	e0bfff15 	stw	r2,-4(fp)
  203318:	00005e06 	br	203494 <_malloc_r+0x950>
  20331c:	e0bfff17 	ldw	r2,-4(fp)
  203320:	10c00117 	ldw	r3,4(r2)
  203324:	00bfff04 	movi	r2,-4
  203328:	1884703a 	and	r2,r3,r2
  20332c:	e0bff515 	stw	r2,-44(fp)
  203330:	e0fff517 	ldw	r3,-44(fp)
  203334:	e0bff617 	ldw	r2,-40(fp)
  203338:	1885c83a 	sub	r2,r3,r2
  20333c:	e0bffc15 	stw	r2,-16(fp)
  203340:	e0bffc17 	ldw	r2,-16(fp)
  203344:	10800410 	cmplti	r2,r2,16
  203348:	1000331e 	bne	r2,zero,203418 <_malloc_r+0x8d4>
  20334c:	e0ffff17 	ldw	r3,-4(fp)
  203350:	e0bff617 	ldw	r2,-40(fp)
  203354:	1885883a 	add	r2,r3,r2
  203358:	e0bff315 	stw	r2,-52(fp)
  20335c:	e0bff617 	ldw	r2,-40(fp)
  203360:	10c00054 	ori	r3,r2,1
  203364:	e0bfff17 	ldw	r2,-4(fp)
  203368:	10c00115 	stw	r3,4(r2)
  20336c:	e0bfff17 	ldw	r2,-4(fp)
  203370:	10800317 	ldw	r2,12(r2)
  203374:	e0bff815 	stw	r2,-32(fp)
  203378:	e0bfff17 	ldw	r2,-4(fp)
  20337c:	10800217 	ldw	r2,8(r2)
  203380:	e0bff915 	stw	r2,-28(fp)
  203384:	e0bff917 	ldw	r2,-28(fp)
  203388:	e0fff817 	ldw	r3,-32(fp)
  20338c:	10c00315 	stw	r3,12(r2)
  203390:	e0bff817 	ldw	r2,-32(fp)
  203394:	e0fff917 	ldw	r3,-28(fp)
  203398:	10c00215 	stw	r3,8(r2)
  20339c:	00800834 	movhi	r2,32
  2033a0:	109fd604 	addi	r2,r2,32600
  2033a4:	e0fff317 	ldw	r3,-52(fp)
  2033a8:	10c00315 	stw	r3,12(r2)
  2033ac:	00c00834 	movhi	r3,32
  2033b0:	18dfd604 	addi	r3,r3,32600
  2033b4:	10800317 	ldw	r2,12(r2)
  2033b8:	18800215 	stw	r2,8(r3)
  2033bc:	00800834 	movhi	r2,32
  2033c0:	109fd604 	addi	r2,r2,32600
  2033c4:	e0fff317 	ldw	r3,-52(fp)
  2033c8:	18800315 	stw	r2,12(r3)
  2033cc:	e0bff317 	ldw	r2,-52(fp)
  2033d0:	10c00317 	ldw	r3,12(r2)
  2033d4:	e0bff317 	ldw	r2,-52(fp)
  2033d8:	10c00215 	stw	r3,8(r2)
  2033dc:	e0bffc17 	ldw	r2,-16(fp)
  2033e0:	10800054 	ori	r2,r2,1
  2033e4:	1007883a 	mov	r3,r2
  2033e8:	e0bff317 	ldw	r2,-52(fp)
  2033ec:	10c00115 	stw	r3,4(r2)
  2033f0:	e0bffc17 	ldw	r2,-16(fp)
  2033f4:	e0fff317 	ldw	r3,-52(fp)
  2033f8:	1885883a 	add	r2,r3,r2
  2033fc:	e0fffc17 	ldw	r3,-16(fp)
  203400:	10c00015 	stw	r3,0(r2)
  203404:	e13ff217 	ldw	r4,-56(fp)
  203408:	02054ac0 	call	2054ac <__malloc_unlock>
  20340c:	e0bfff17 	ldw	r2,-4(fp)
  203410:	10800204 	addi	r2,r2,8
  203414:	0000a106 	br	20369c <_malloc_r+0xb58>
  203418:	e0bffc17 	ldw	r2,-16(fp)
  20341c:	10001a16 	blt	r2,zero,203488 <_malloc_r+0x944>
  203420:	e0ffff17 	ldw	r3,-4(fp)
  203424:	e0bff517 	ldw	r2,-44(fp)
  203428:	1885883a 	add	r2,r3,r2
  20342c:	10c00117 	ldw	r3,4(r2)
  203430:	e13fff17 	ldw	r4,-4(fp)
  203434:	e0bff517 	ldw	r2,-44(fp)
  203438:	2085883a 	add	r2,r4,r2
  20343c:	18c00054 	ori	r3,r3,1
  203440:	10c00115 	stw	r3,4(r2)
  203444:	e0bfff17 	ldw	r2,-4(fp)
  203448:	10800317 	ldw	r2,12(r2)
  20344c:	e0bff815 	stw	r2,-32(fp)
  203450:	e0bfff17 	ldw	r2,-4(fp)
  203454:	10800217 	ldw	r2,8(r2)
  203458:	e0bff915 	stw	r2,-28(fp)
  20345c:	e0bff917 	ldw	r2,-28(fp)
  203460:	e0fff817 	ldw	r3,-32(fp)
  203464:	10c00315 	stw	r3,12(r2)
  203468:	e0bff817 	ldw	r2,-32(fp)
  20346c:	e0fff917 	ldw	r3,-28(fp)
  203470:	10c00215 	stw	r3,8(r2)
  203474:	e13ff217 	ldw	r4,-56(fp)
  203478:	02054ac0 	call	2054ac <__malloc_unlock>
  20347c:	e0bfff17 	ldw	r2,-4(fp)
  203480:	10800204 	addi	r2,r2,8
  203484:	00008506 	br	20369c <_malloc_r+0xb58>
  203488:	e0bfff17 	ldw	r2,-4(fp)
  20348c:	10800317 	ldw	r2,12(r2)
  203490:	e0bfff15 	stw	r2,-4(fp)
  203494:	e0ffff17 	ldw	r3,-4(fp)
  203498:	e0bffd17 	ldw	r2,-12(fp)
  20349c:	18bf9f1e 	bne	r3,r2,20331c <_malloc_r+0x7d8>
  2034a0:	e0bffd17 	ldw	r2,-12(fp)
  2034a4:	10800204 	addi	r2,r2,8
  2034a8:	e0bffd15 	stw	r2,-12(fp)
  2034ac:	e0bffe17 	ldw	r2,-8(fp)
  2034b0:	10800044 	addi	r2,r2,1
  2034b4:	e0bffe15 	stw	r2,-8(fp)
  2034b8:	e0bffe17 	ldw	r2,-8(fp)
  2034bc:	108000cc 	andi	r2,r2,3
  2034c0:	103f921e 	bne	r2,zero,20330c <_malloc_r+0x7c8>
  2034c4:	e0bffa17 	ldw	r2,-24(fp)
  2034c8:	108000cc 	andi	r2,r2,3
  2034cc:	10000a1e 	bne	r2,zero,2034f8 <_malloc_r+0x9b4>
  2034d0:	00800834 	movhi	r2,32
  2034d4:	109fd404 	addi	r2,r2,32592
  2034d8:	11000117 	ldw	r4,4(r2)
  2034dc:	e0bffb17 	ldw	r2,-20(fp)
  2034e0:	0086303a 	nor	r3,zero,r2
  2034e4:	00800834 	movhi	r2,32
  2034e8:	109fd404 	addi	r2,r2,32592
  2034ec:	20c6703a 	and	r3,r4,r3
  2034f0:	10c00115 	stw	r3,4(r2)
  2034f4:	00000a06 	br	203520 <_malloc_r+0x9dc>
  2034f8:	e0bffa17 	ldw	r2,-24(fp)
  2034fc:	10bfffc4 	addi	r2,r2,-1
  203500:	e0bffa15 	stw	r2,-24(fp)
  203504:	e0bff717 	ldw	r2,-36(fp)
  203508:	10bffe04 	addi	r2,r2,-8
  20350c:	e0bff715 	stw	r2,-36(fp)
  203510:	e0bff717 	ldw	r2,-36(fp)
  203514:	10800217 	ldw	r2,8(r2)
  203518:	e0fff717 	ldw	r3,-36(fp)
  20351c:	18bfe926 	beq	r3,r2,2034c4 <_malloc_r+0x980>
  203520:	e0bffb17 	ldw	r2,-20(fp)
  203524:	1085883a 	add	r2,r2,r2
  203528:	e0bffb15 	stw	r2,-20(fp)
  20352c:	00800834 	movhi	r2,32
  203530:	109fd404 	addi	r2,r2,32592
  203534:	10c00117 	ldw	r3,4(r2)
  203538:	e0bffb17 	ldw	r2,-20(fp)
  20353c:	18801036 	bltu	r3,r2,203580 <_malloc_r+0xa3c>
  203540:	e0bffb17 	ldw	r2,-20(fp)
  203544:	10000e26 	beq	r2,zero,203580 <_malloc_r+0xa3c>
  203548:	00000606 	br	203564 <_malloc_r+0xa20>
  20354c:	e0bffe17 	ldw	r2,-8(fp)
  203550:	10800104 	addi	r2,r2,4
  203554:	e0bffe15 	stw	r2,-8(fp)
  203558:	e0bffb17 	ldw	r2,-20(fp)
  20355c:	1085883a 	add	r2,r2,r2
  203560:	e0bffb15 	stw	r2,-20(fp)
  203564:	00800834 	movhi	r2,32
  203568:	109fd404 	addi	r2,r2,32592
  20356c:	10c00117 	ldw	r3,4(r2)
  203570:	e0bffb17 	ldw	r2,-20(fp)
  203574:	1884703a 	and	r2,r3,r2
  203578:	103ff426 	beq	r2,zero,20354c <_malloc_r+0xa08>
  20357c:	003f5606 	br	2032d8 <_malloc_r+0x794>
  203580:	00800834 	movhi	r2,32
  203584:	109fd404 	addi	r2,r2,32592
  203588:	10800217 	ldw	r2,8(r2)
  20358c:	10c00117 	ldw	r3,4(r2)
  203590:	00bfff04 	movi	r2,-4
  203594:	1886703a 	and	r3,r3,r2
  203598:	e0bff617 	ldw	r2,-40(fp)
  20359c:	1885c83a 	sub	r2,r3,r2
  2035a0:	e0bffc15 	stw	r2,-16(fp)
  2035a4:	00800834 	movhi	r2,32
  2035a8:	109fd404 	addi	r2,r2,32592
  2035ac:	10800217 	ldw	r2,8(r2)
  2035b0:	10c00117 	ldw	r3,4(r2)
  2035b4:	00bfff04 	movi	r2,-4
  2035b8:	1886703a 	and	r3,r3,r2
  2035bc:	e0bff617 	ldw	r2,-40(fp)
  2035c0:	18800336 	bltu	r3,r2,2035d0 <_malloc_r+0xa8c>
  2035c4:	e0bffc17 	ldw	r2,-16(fp)
  2035c8:	10800408 	cmpgei	r2,r2,16
  2035cc:	10001b1e 	bne	r2,zero,20363c <_malloc_r+0xaf8>
  2035d0:	e17ff617 	ldw	r5,-40(fp)
  2035d4:	e13ff217 	ldw	r4,-56(fp)
  2035d8:	02027800 	call	202780 <malloc_extend_top>
  2035dc:	00800834 	movhi	r2,32
  2035e0:	109fd404 	addi	r2,r2,32592
  2035e4:	10800217 	ldw	r2,8(r2)
  2035e8:	10c00117 	ldw	r3,4(r2)
  2035ec:	00bfff04 	movi	r2,-4
  2035f0:	1886703a 	and	r3,r3,r2
  2035f4:	e0bff617 	ldw	r2,-40(fp)
  2035f8:	1885c83a 	sub	r2,r3,r2
  2035fc:	e0bffc15 	stw	r2,-16(fp)
  203600:	00800834 	movhi	r2,32
  203604:	109fd404 	addi	r2,r2,32592
  203608:	10800217 	ldw	r2,8(r2)
  20360c:	10c00117 	ldw	r3,4(r2)
  203610:	00bfff04 	movi	r2,-4
  203614:	1886703a 	and	r3,r3,r2
  203618:	e0bff617 	ldw	r2,-40(fp)
  20361c:	18800336 	bltu	r3,r2,20362c <_malloc_r+0xae8>
  203620:	e0bffc17 	ldw	r2,-16(fp)
  203624:	10800408 	cmpgei	r2,r2,16
  203628:	1000041e 	bne	r2,zero,20363c <_malloc_r+0xaf8>
  20362c:	e13ff217 	ldw	r4,-56(fp)
  203630:	02054ac0 	call	2054ac <__malloc_unlock>
  203634:	0005883a 	mov	r2,zero
  203638:	00001806 	br	20369c <_malloc_r+0xb58>
  20363c:	00800834 	movhi	r2,32
  203640:	109fd404 	addi	r2,r2,32592
  203644:	10800217 	ldw	r2,8(r2)
  203648:	e0bfff15 	stw	r2,-4(fp)
  20364c:	e0bff617 	ldw	r2,-40(fp)
  203650:	10c00054 	ori	r3,r2,1
  203654:	e0bfff17 	ldw	r2,-4(fp)
  203658:	10c00115 	stw	r3,4(r2)
  20365c:	00800834 	movhi	r2,32
  203660:	109fd404 	addi	r2,r2,32592
  203664:	e13fff17 	ldw	r4,-4(fp)
  203668:	e0fff617 	ldw	r3,-40(fp)
  20366c:	20c7883a 	add	r3,r4,r3
  203670:	10c00215 	stw	r3,8(r2)
  203674:	e0bffc17 	ldw	r2,-16(fp)
  203678:	10c00054 	ori	r3,r2,1
  20367c:	00800834 	movhi	r2,32
  203680:	109fd404 	addi	r2,r2,32592
  203684:	10800217 	ldw	r2,8(r2)
  203688:	10c00115 	stw	r3,4(r2)
  20368c:	e13ff217 	ldw	r4,-56(fp)
  203690:	02054ac0 	call	2054ac <__malloc_unlock>
  203694:	e0bfff17 	ldw	r2,-4(fp)
  203698:	10800204 	addi	r2,r2,8
  20369c:	e037883a 	mov	sp,fp
  2036a0:	dfc00117 	ldw	ra,4(sp)
  2036a4:	df000017 	ldw	fp,0(sp)
  2036a8:	dec00204 	addi	sp,sp,8
  2036ac:	f800283a 	ret

002036b0 <_realloc_r>:
  2036b0:	deffe104 	addi	sp,sp,-124
  2036b4:	dfc01e15 	stw	ra,120(sp)
  2036b8:	df001d15 	stw	fp,116(sp)
  2036bc:	df001d04 	addi	fp,sp,116
  2036c0:	e13fe515 	stw	r4,-108(fp)
  2036c4:	e17fe415 	stw	r5,-112(fp)
  2036c8:	e1bfe315 	stw	r6,-116(fp)
  2036cc:	e0bfe417 	ldw	r2,-112(fp)
  2036d0:	1000041e 	bne	r2,zero,2036e4 <_realloc_r+0x34>
  2036d4:	e17fe317 	ldw	r5,-116(fp)
  2036d8:	e13fe517 	ldw	r4,-108(fp)
  2036dc:	0202b440 	call	202b44 <_malloc_r>
  2036e0:	0002eb06 	br	204290 <_realloc_r+0xbe0>
  2036e4:	e13fe517 	ldw	r4,-108(fp)
  2036e8:	02054880 	call	205488 <__malloc_lock>
  2036ec:	e0bfe417 	ldw	r2,-112(fp)
  2036f0:	10bffe04 	addi	r2,r2,-8
  2036f4:	e0bff315 	stw	r2,-52(fp)
  2036f8:	e0bff317 	ldw	r2,-52(fp)
  2036fc:	e0bfff15 	stw	r2,-4(fp)
  203700:	e0bff317 	ldw	r2,-52(fp)
  203704:	10c00117 	ldw	r3,4(r2)
  203708:	00bfff04 	movi	r2,-4
  20370c:	1884703a 	and	r2,r3,r2
  203710:	e0bff215 	stw	r2,-56(fp)
  203714:	e0bff217 	ldw	r2,-56(fp)
  203718:	e0bffe15 	stw	r2,-8(fp)
  20371c:	e0bfe317 	ldw	r2,-116(fp)
  203720:	108002c4 	addi	r2,r2,11
  203724:	108005f0 	cmpltui	r2,r2,23
  203728:	1000051e 	bne	r2,zero,203740 <_realloc_r+0x90>
  20372c:	e0bfe317 	ldw	r2,-116(fp)
  203730:	10c002c4 	addi	r3,r2,11
  203734:	00bffe04 	movi	r2,-8
  203738:	1884703a 	and	r2,r3,r2
  20373c:	00000106 	br	203744 <_realloc_r+0x94>
  203740:	00800404 	movi	r2,16
  203744:	e0bff115 	stw	r2,-60(fp)
  203748:	e0bff117 	ldw	r2,-60(fp)
  20374c:	10000316 	blt	r2,zero,20375c <_realloc_r+0xac>
  203750:	e0fff117 	ldw	r3,-60(fp)
  203754:	e0bfe317 	ldw	r2,-116(fp)
  203758:	1880052e 	bgeu	r3,r2,203770 <_realloc_r+0xc0>
  20375c:	e0bfe517 	ldw	r2,-108(fp)
  203760:	00c00304 	movi	r3,12
  203764:	10c00015 	stw	r3,0(r2)
  203768:	0005883a 	mov	r2,zero
  20376c:	0002c806 	br	204290 <_realloc_r+0xbe0>
  203770:	e0fff217 	ldw	r3,-56(fp)
  203774:	e0bff117 	ldw	r2,-60(fp)
  203778:	18828b0e 	bge	r3,r2,2041a8 <_realloc_r+0xaf8>
  20377c:	e0fff317 	ldw	r3,-52(fp)
  203780:	e0bff217 	ldw	r2,-56(fp)
  203784:	1885883a 	add	r2,r3,r2
  203788:	e0bffd15 	stw	r2,-12(fp)
  20378c:	00800834 	movhi	r2,32
  203790:	109fd404 	addi	r2,r2,32592
  203794:	10800217 	ldw	r2,8(r2)
  203798:	e0fffd17 	ldw	r3,-12(fp)
  20379c:	18800926 	beq	r3,r2,2037c4 <_realloc_r+0x114>
  2037a0:	e0bffd17 	ldw	r2,-12(fp)
  2037a4:	10c00117 	ldw	r3,4(r2)
  2037a8:	00bfff84 	movi	r2,-2
  2037ac:	1884703a 	and	r2,r3,r2
  2037b0:	e0fffd17 	ldw	r3,-12(fp)
  2037b4:	1885883a 	add	r2,r3,r2
  2037b8:	10800117 	ldw	r2,4(r2)
  2037bc:	1080004c 	andi	r2,r2,1
  2037c0:	1000461e 	bne	r2,zero,2038dc <_realloc_r+0x22c>
  2037c4:	e0bffd17 	ldw	r2,-12(fp)
  2037c8:	10c00117 	ldw	r3,4(r2)
  2037cc:	00bfff04 	movi	r2,-4
  2037d0:	1884703a 	and	r2,r3,r2
  2037d4:	e0bffc15 	stw	r2,-16(fp)
  2037d8:	00800834 	movhi	r2,32
  2037dc:	109fd404 	addi	r2,r2,32592
  2037e0:	10800217 	ldw	r2,8(r2)
  2037e4:	e0fffd17 	ldw	r3,-12(fp)
  2037e8:	1880251e 	bne	r3,r2,203880 <_realloc_r+0x1d0>
  2037ec:	e0fffc17 	ldw	r3,-16(fp)
  2037f0:	e0bffe17 	ldw	r2,-8(fp)
  2037f4:	1885883a 	add	r2,r3,r2
  2037f8:	1007883a 	mov	r3,r2
  2037fc:	e0bff117 	ldw	r2,-60(fp)
  203800:	10800404 	addi	r2,r2,16
  203804:	18803816 	blt	r3,r2,2038e8 <_realloc_r+0x238>
  203808:	e0fffe17 	ldw	r3,-8(fp)
  20380c:	e0bffc17 	ldw	r2,-16(fp)
  203810:	1885883a 	add	r2,r3,r2
  203814:	e0bffe15 	stw	r2,-8(fp)
  203818:	00800834 	movhi	r2,32
  20381c:	109fd404 	addi	r2,r2,32592
  203820:	e13ff317 	ldw	r4,-52(fp)
  203824:	e0fff117 	ldw	r3,-60(fp)
  203828:	20c7883a 	add	r3,r4,r3
  20382c:	10c00215 	stw	r3,8(r2)
  203830:	e0fffe17 	ldw	r3,-8(fp)
  203834:	e0bff117 	ldw	r2,-60(fp)
  203838:	1887c83a 	sub	r3,r3,r2
  20383c:	00800834 	movhi	r2,32
  203840:	109fd404 	addi	r2,r2,32592
  203844:	10800217 	ldw	r2,8(r2)
  203848:	18c00054 	ori	r3,r3,1
  20384c:	10c00115 	stw	r3,4(r2)
  203850:	e0bff317 	ldw	r2,-52(fp)
  203854:	10800117 	ldw	r2,4(r2)
  203858:	10c0004c 	andi	r3,r2,1
  20385c:	e0bff117 	ldw	r2,-60(fp)
  203860:	1886b03a 	or	r3,r3,r2
  203864:	e0bff317 	ldw	r2,-52(fp)
  203868:	10c00115 	stw	r3,4(r2)
  20386c:	e13fe517 	ldw	r4,-108(fp)
  203870:	02054ac0 	call	2054ac <__malloc_unlock>
  203874:	e0bff317 	ldw	r2,-52(fp)
  203878:	10800204 	addi	r2,r2,8
  20387c:	00028406 	br	204290 <_realloc_r+0xbe0>
  203880:	e0fffc17 	ldw	r3,-16(fp)
  203884:	e0bffe17 	ldw	r2,-8(fp)
  203888:	1885883a 	add	r2,r3,r2
  20388c:	1007883a 	mov	r3,r2
  203890:	e0bff117 	ldw	r2,-60(fp)
  203894:	18801416 	blt	r3,r2,2038e8 <_realloc_r+0x238>
  203898:	e0bffd17 	ldw	r2,-12(fp)
  20389c:	10800317 	ldw	r2,12(r2)
  2038a0:	e0bff015 	stw	r2,-64(fp)
  2038a4:	e0bffd17 	ldw	r2,-12(fp)
  2038a8:	10800217 	ldw	r2,8(r2)
  2038ac:	e0bfef15 	stw	r2,-68(fp)
  2038b0:	e0bfef17 	ldw	r2,-68(fp)
  2038b4:	e0fff017 	ldw	r3,-64(fp)
  2038b8:	10c00315 	stw	r3,12(r2)
  2038bc:	e0bff017 	ldw	r2,-64(fp)
  2038c0:	e0ffef17 	ldw	r3,-68(fp)
  2038c4:	10c00215 	stw	r3,8(r2)
  2038c8:	e0fffe17 	ldw	r3,-8(fp)
  2038cc:	e0bffc17 	ldw	r2,-16(fp)
  2038d0:	1885883a 	add	r2,r3,r2
  2038d4:	e0bffe15 	stw	r2,-8(fp)
  2038d8:	00023406 	br	2041ac <_realloc_r+0xafc>
  2038dc:	e03ffd15 	stw	zero,-12(fp)
  2038e0:	e03ffc15 	stw	zero,-16(fp)
  2038e4:	00000106 	br	2038ec <_realloc_r+0x23c>
  2038e8:	0001883a 	nop
  2038ec:	e0bff317 	ldw	r2,-52(fp)
  2038f0:	10800117 	ldw	r2,4(r2)
  2038f4:	1080004c 	andi	r2,r2,1
  2038f8:	1001a91e 	bne	r2,zero,203fa0 <_realloc_r+0x8f0>
  2038fc:	e0bff317 	ldw	r2,-52(fp)
  203900:	10800017 	ldw	r2,0(r2)
  203904:	0085c83a 	sub	r2,zero,r2
  203908:	e0fff317 	ldw	r3,-52(fp)
  20390c:	1885883a 	add	r2,r3,r2
  203910:	e0bfee15 	stw	r2,-72(fp)
  203914:	e0bfee17 	ldw	r2,-72(fp)
  203918:	10c00117 	ldw	r3,4(r2)
  20391c:	00bfff04 	movi	r2,-4
  203920:	1884703a 	and	r2,r3,r2
  203924:	e0bfed15 	stw	r2,-76(fp)
  203928:	e0bffd17 	ldw	r2,-12(fp)
  20392c:	10012226 	beq	r2,zero,203db8 <_realloc_r+0x708>
  203930:	00800834 	movhi	r2,32
  203934:	109fd404 	addi	r2,r2,32592
  203938:	10800217 	ldw	r2,8(r2)
  20393c:	e0fffd17 	ldw	r3,-12(fp)
  203940:	1880951e 	bne	r3,r2,203b98 <_realloc_r+0x4e8>
  203944:	e0fffc17 	ldw	r3,-16(fp)
  203948:	e0bfed17 	ldw	r2,-76(fp)
  20394c:	1887883a 	add	r3,r3,r2
  203950:	e0bffe17 	ldw	r2,-8(fp)
  203954:	1885883a 	add	r2,r3,r2
  203958:	1007883a 	mov	r3,r2
  20395c:	e0bff117 	ldw	r2,-60(fp)
  203960:	10800404 	addi	r2,r2,16
  203964:	18811416 	blt	r3,r2,203db8 <_realloc_r+0x708>
  203968:	e0bfee17 	ldw	r2,-72(fp)
  20396c:	10800317 	ldw	r2,12(r2)
  203970:	e0bff015 	stw	r2,-64(fp)
  203974:	e0bfee17 	ldw	r2,-72(fp)
  203978:	10800217 	ldw	r2,8(r2)
  20397c:	e0bfef15 	stw	r2,-68(fp)
  203980:	e0bfef17 	ldw	r2,-68(fp)
  203984:	e0fff017 	ldw	r3,-64(fp)
  203988:	10c00315 	stw	r3,12(r2)
  20398c:	e0bff017 	ldw	r2,-64(fp)
  203990:	e0ffef17 	ldw	r3,-68(fp)
  203994:	10c00215 	stw	r3,8(r2)
  203998:	e0bfee17 	ldw	r2,-72(fp)
  20399c:	e0bfff15 	stw	r2,-4(fp)
  2039a0:	e0ffed17 	ldw	r3,-76(fp)
  2039a4:	e0bffc17 	ldw	r2,-16(fp)
  2039a8:	1885883a 	add	r2,r3,r2
  2039ac:	e0fffe17 	ldw	r3,-8(fp)
  2039b0:	1885883a 	add	r2,r3,r2
  2039b4:	e0bffe15 	stw	r2,-8(fp)
  2039b8:	e0bfff17 	ldw	r2,-4(fp)
  2039bc:	10800204 	addi	r2,r2,8
  2039c0:	e0bfec15 	stw	r2,-80(fp)
  2039c4:	e0bff217 	ldw	r2,-56(fp)
  2039c8:	10bfff04 	addi	r2,r2,-4
  2039cc:	e0bfea15 	stw	r2,-88(fp)
  2039d0:	e0bfea17 	ldw	r2,-88(fp)
  2039d4:	10800968 	cmpgeui	r2,r2,37
  2039d8:	1000521e 	bne	r2,zero,203b24 <_realloc_r+0x474>
  2039dc:	e0bfe417 	ldw	r2,-112(fp)
  2039e0:	e0bffb15 	stw	r2,-20(fp)
  2039e4:	e0bfec17 	ldw	r2,-80(fp)
  2039e8:	e0bffa15 	stw	r2,-24(fp)
  2039ec:	e0bfea17 	ldw	r2,-88(fp)
  2039f0:	10800530 	cmpltui	r2,r2,20
  2039f4:	1000361e 	bne	r2,zero,203ad0 <_realloc_r+0x420>
  2039f8:	e0fffb17 	ldw	r3,-20(fp)
  2039fc:	18800104 	addi	r2,r3,4
  203a00:	e0bffb15 	stw	r2,-20(fp)
  203a04:	e0bffa17 	ldw	r2,-24(fp)
  203a08:	11000104 	addi	r4,r2,4
  203a0c:	e13ffa15 	stw	r4,-24(fp)
  203a10:	18c00017 	ldw	r3,0(r3)
  203a14:	10c00015 	stw	r3,0(r2)
  203a18:	e0fffb17 	ldw	r3,-20(fp)
  203a1c:	18800104 	addi	r2,r3,4
  203a20:	e0bffb15 	stw	r2,-20(fp)
  203a24:	e0bffa17 	ldw	r2,-24(fp)
  203a28:	11000104 	addi	r4,r2,4
  203a2c:	e13ffa15 	stw	r4,-24(fp)
  203a30:	18c00017 	ldw	r3,0(r3)
  203a34:	10c00015 	stw	r3,0(r2)
  203a38:	e0bfea17 	ldw	r2,-88(fp)
  203a3c:	10800730 	cmpltui	r2,r2,28
  203a40:	1000231e 	bne	r2,zero,203ad0 <_realloc_r+0x420>
  203a44:	e0fffb17 	ldw	r3,-20(fp)
  203a48:	18800104 	addi	r2,r3,4
  203a4c:	e0bffb15 	stw	r2,-20(fp)
  203a50:	e0bffa17 	ldw	r2,-24(fp)
  203a54:	11000104 	addi	r4,r2,4
  203a58:	e13ffa15 	stw	r4,-24(fp)
  203a5c:	18c00017 	ldw	r3,0(r3)
  203a60:	10c00015 	stw	r3,0(r2)
  203a64:	e0fffb17 	ldw	r3,-20(fp)
  203a68:	18800104 	addi	r2,r3,4
  203a6c:	e0bffb15 	stw	r2,-20(fp)
  203a70:	e0bffa17 	ldw	r2,-24(fp)
  203a74:	11000104 	addi	r4,r2,4
  203a78:	e13ffa15 	stw	r4,-24(fp)
  203a7c:	18c00017 	ldw	r3,0(r3)
  203a80:	10c00015 	stw	r3,0(r2)
  203a84:	e0bfea17 	ldw	r2,-88(fp)
  203a88:	10800930 	cmpltui	r2,r2,36
  203a8c:	1000101e 	bne	r2,zero,203ad0 <_realloc_r+0x420>
  203a90:	e0fffb17 	ldw	r3,-20(fp)
  203a94:	18800104 	addi	r2,r3,4
  203a98:	e0bffb15 	stw	r2,-20(fp)
  203a9c:	e0bffa17 	ldw	r2,-24(fp)
  203aa0:	11000104 	addi	r4,r2,4
  203aa4:	e13ffa15 	stw	r4,-24(fp)
  203aa8:	18c00017 	ldw	r3,0(r3)
  203aac:	10c00015 	stw	r3,0(r2)
  203ab0:	e0fffb17 	ldw	r3,-20(fp)
  203ab4:	18800104 	addi	r2,r3,4
  203ab8:	e0bffb15 	stw	r2,-20(fp)
  203abc:	e0bffa17 	ldw	r2,-24(fp)
  203ac0:	11000104 	addi	r4,r2,4
  203ac4:	e13ffa15 	stw	r4,-24(fp)
  203ac8:	18c00017 	ldw	r3,0(r3)
  203acc:	10c00015 	stw	r3,0(r2)
  203ad0:	e0fffb17 	ldw	r3,-20(fp)
  203ad4:	18800104 	addi	r2,r3,4
  203ad8:	e0bffb15 	stw	r2,-20(fp)
  203adc:	e0bffa17 	ldw	r2,-24(fp)
  203ae0:	11000104 	addi	r4,r2,4
  203ae4:	e13ffa15 	stw	r4,-24(fp)
  203ae8:	18c00017 	ldw	r3,0(r3)
  203aec:	10c00015 	stw	r3,0(r2)
  203af0:	e0fffb17 	ldw	r3,-20(fp)
  203af4:	18800104 	addi	r2,r3,4
  203af8:	e0bffb15 	stw	r2,-20(fp)
  203afc:	e0bffa17 	ldw	r2,-24(fp)
  203b00:	11000104 	addi	r4,r2,4
  203b04:	e13ffa15 	stw	r4,-24(fp)
  203b08:	18c00017 	ldw	r3,0(r3)
  203b0c:	10c00015 	stw	r3,0(r2)
  203b10:	e0bffb17 	ldw	r2,-20(fp)
  203b14:	10c00017 	ldw	r3,0(r2)
  203b18:	e0bffa17 	ldw	r2,-24(fp)
  203b1c:	10c00015 	stw	r3,0(r2)
  203b20:	00000406 	br	203b34 <_realloc_r+0x484>
  203b24:	e1bfea17 	ldw	r6,-88(fp)
  203b28:	e17fe417 	ldw	r5,-112(fp)
  203b2c:	e13fec17 	ldw	r4,-80(fp)
  203b30:	02019980 	call	201998 <memmove>
  203b34:	00800834 	movhi	r2,32
  203b38:	109fd404 	addi	r2,r2,32592
  203b3c:	e13fff17 	ldw	r4,-4(fp)
  203b40:	e0fff117 	ldw	r3,-60(fp)
  203b44:	20c7883a 	add	r3,r4,r3
  203b48:	10c00215 	stw	r3,8(r2)
  203b4c:	e0fffe17 	ldw	r3,-8(fp)
  203b50:	e0bff117 	ldw	r2,-60(fp)
  203b54:	1887c83a 	sub	r3,r3,r2
  203b58:	00800834 	movhi	r2,32
  203b5c:	109fd404 	addi	r2,r2,32592
  203b60:	10800217 	ldw	r2,8(r2)
  203b64:	18c00054 	ori	r3,r3,1
  203b68:	10c00115 	stw	r3,4(r2)
  203b6c:	e0bfff17 	ldw	r2,-4(fp)
  203b70:	10800117 	ldw	r2,4(r2)
  203b74:	10c0004c 	andi	r3,r2,1
  203b78:	e0bff117 	ldw	r2,-60(fp)
  203b7c:	1886b03a 	or	r3,r3,r2
  203b80:	e0bfff17 	ldw	r2,-4(fp)
  203b84:	10c00115 	stw	r3,4(r2)
  203b88:	e13fe517 	ldw	r4,-108(fp)
  203b8c:	02054ac0 	call	2054ac <__malloc_unlock>
  203b90:	e0bfec17 	ldw	r2,-80(fp)
  203b94:	0001be06 	br	204290 <_realloc_r+0xbe0>
  203b98:	e0fffc17 	ldw	r3,-16(fp)
  203b9c:	e0bfed17 	ldw	r2,-76(fp)
  203ba0:	1887883a 	add	r3,r3,r2
  203ba4:	e0bffe17 	ldw	r2,-8(fp)
  203ba8:	1885883a 	add	r2,r3,r2
  203bac:	1007883a 	mov	r3,r2
  203bb0:	e0bff117 	ldw	r2,-60(fp)
  203bb4:	18808016 	blt	r3,r2,203db8 <_realloc_r+0x708>
  203bb8:	e0bffd17 	ldw	r2,-12(fp)
  203bbc:	10800317 	ldw	r2,12(r2)
  203bc0:	e0bff015 	stw	r2,-64(fp)
  203bc4:	e0bffd17 	ldw	r2,-12(fp)
  203bc8:	10800217 	ldw	r2,8(r2)
  203bcc:	e0bfef15 	stw	r2,-68(fp)
  203bd0:	e0bfef17 	ldw	r2,-68(fp)
  203bd4:	e0fff017 	ldw	r3,-64(fp)
  203bd8:	10c00315 	stw	r3,12(r2)
  203bdc:	e0bff017 	ldw	r2,-64(fp)
  203be0:	e0ffef17 	ldw	r3,-68(fp)
  203be4:	10c00215 	stw	r3,8(r2)
  203be8:	e0bfee17 	ldw	r2,-72(fp)
  203bec:	10800317 	ldw	r2,12(r2)
  203bf0:	e0bff015 	stw	r2,-64(fp)
  203bf4:	e0bfee17 	ldw	r2,-72(fp)
  203bf8:	10800217 	ldw	r2,8(r2)
  203bfc:	e0bfef15 	stw	r2,-68(fp)
  203c00:	e0bfef17 	ldw	r2,-68(fp)
  203c04:	e0fff017 	ldw	r3,-64(fp)
  203c08:	10c00315 	stw	r3,12(r2)
  203c0c:	e0bff017 	ldw	r2,-64(fp)
  203c10:	e0ffef17 	ldw	r3,-68(fp)
  203c14:	10c00215 	stw	r3,8(r2)
  203c18:	e0bfee17 	ldw	r2,-72(fp)
  203c1c:	e0bfff15 	stw	r2,-4(fp)
  203c20:	e0fffc17 	ldw	r3,-16(fp)
  203c24:	e0bfed17 	ldw	r2,-76(fp)
  203c28:	1885883a 	add	r2,r3,r2
  203c2c:	e0fffe17 	ldw	r3,-8(fp)
  203c30:	1885883a 	add	r2,r3,r2
  203c34:	e0bffe15 	stw	r2,-8(fp)
  203c38:	e0bfff17 	ldw	r2,-4(fp)
  203c3c:	10800204 	addi	r2,r2,8
  203c40:	e0bfec15 	stw	r2,-80(fp)
  203c44:	e0bff217 	ldw	r2,-56(fp)
  203c48:	10bfff04 	addi	r2,r2,-4
  203c4c:	e0bfeb15 	stw	r2,-84(fp)
  203c50:	e0bfeb17 	ldw	r2,-84(fp)
  203c54:	10800968 	cmpgeui	r2,r2,37
  203c58:	1000521e 	bne	r2,zero,203da4 <_realloc_r+0x6f4>
  203c5c:	e0bfe417 	ldw	r2,-112(fp)
  203c60:	e0bff915 	stw	r2,-28(fp)
  203c64:	e0bfec17 	ldw	r2,-80(fp)
  203c68:	e0bff815 	stw	r2,-32(fp)
  203c6c:	e0bfeb17 	ldw	r2,-84(fp)
  203c70:	10800530 	cmpltui	r2,r2,20
  203c74:	1000361e 	bne	r2,zero,203d50 <_realloc_r+0x6a0>
  203c78:	e0fff917 	ldw	r3,-28(fp)
  203c7c:	18800104 	addi	r2,r3,4
  203c80:	e0bff915 	stw	r2,-28(fp)
  203c84:	e0bff817 	ldw	r2,-32(fp)
  203c88:	11000104 	addi	r4,r2,4
  203c8c:	e13ff815 	stw	r4,-32(fp)
  203c90:	18c00017 	ldw	r3,0(r3)
  203c94:	10c00015 	stw	r3,0(r2)
  203c98:	e0fff917 	ldw	r3,-28(fp)
  203c9c:	18800104 	addi	r2,r3,4
  203ca0:	e0bff915 	stw	r2,-28(fp)
  203ca4:	e0bff817 	ldw	r2,-32(fp)
  203ca8:	11000104 	addi	r4,r2,4
  203cac:	e13ff815 	stw	r4,-32(fp)
  203cb0:	18c00017 	ldw	r3,0(r3)
  203cb4:	10c00015 	stw	r3,0(r2)
  203cb8:	e0bfeb17 	ldw	r2,-84(fp)
  203cbc:	10800730 	cmpltui	r2,r2,28
  203cc0:	1000231e 	bne	r2,zero,203d50 <_realloc_r+0x6a0>
  203cc4:	e0fff917 	ldw	r3,-28(fp)
  203cc8:	18800104 	addi	r2,r3,4
  203ccc:	e0bff915 	stw	r2,-28(fp)
  203cd0:	e0bff817 	ldw	r2,-32(fp)
  203cd4:	11000104 	addi	r4,r2,4
  203cd8:	e13ff815 	stw	r4,-32(fp)
  203cdc:	18c00017 	ldw	r3,0(r3)
  203ce0:	10c00015 	stw	r3,0(r2)
  203ce4:	e0fff917 	ldw	r3,-28(fp)
  203ce8:	18800104 	addi	r2,r3,4
  203cec:	e0bff915 	stw	r2,-28(fp)
  203cf0:	e0bff817 	ldw	r2,-32(fp)
  203cf4:	11000104 	addi	r4,r2,4
  203cf8:	e13ff815 	stw	r4,-32(fp)
  203cfc:	18c00017 	ldw	r3,0(r3)
  203d00:	10c00015 	stw	r3,0(r2)
  203d04:	e0bfeb17 	ldw	r2,-84(fp)
  203d08:	10800930 	cmpltui	r2,r2,36
  203d0c:	1000101e 	bne	r2,zero,203d50 <_realloc_r+0x6a0>
  203d10:	e0fff917 	ldw	r3,-28(fp)
  203d14:	18800104 	addi	r2,r3,4
  203d18:	e0bff915 	stw	r2,-28(fp)
  203d1c:	e0bff817 	ldw	r2,-32(fp)
  203d20:	11000104 	addi	r4,r2,4
  203d24:	e13ff815 	stw	r4,-32(fp)
  203d28:	18c00017 	ldw	r3,0(r3)
  203d2c:	10c00015 	stw	r3,0(r2)
  203d30:	e0fff917 	ldw	r3,-28(fp)
  203d34:	18800104 	addi	r2,r3,4
  203d38:	e0bff915 	stw	r2,-28(fp)
  203d3c:	e0bff817 	ldw	r2,-32(fp)
  203d40:	11000104 	addi	r4,r2,4
  203d44:	e13ff815 	stw	r4,-32(fp)
  203d48:	18c00017 	ldw	r3,0(r3)
  203d4c:	10c00015 	stw	r3,0(r2)
  203d50:	e0fff917 	ldw	r3,-28(fp)
  203d54:	18800104 	addi	r2,r3,4
  203d58:	e0bff915 	stw	r2,-28(fp)
  203d5c:	e0bff817 	ldw	r2,-32(fp)
  203d60:	11000104 	addi	r4,r2,4
  203d64:	e13ff815 	stw	r4,-32(fp)
  203d68:	18c00017 	ldw	r3,0(r3)
  203d6c:	10c00015 	stw	r3,0(r2)
  203d70:	e0fff917 	ldw	r3,-28(fp)
  203d74:	18800104 	addi	r2,r3,4
  203d78:	e0bff915 	stw	r2,-28(fp)
  203d7c:	e0bff817 	ldw	r2,-32(fp)
  203d80:	11000104 	addi	r4,r2,4
  203d84:	e13ff815 	stw	r4,-32(fp)
  203d88:	18c00017 	ldw	r3,0(r3)
  203d8c:	10c00015 	stw	r3,0(r2)
  203d90:	e0bff917 	ldw	r2,-28(fp)
  203d94:	10c00017 	ldw	r3,0(r2)
  203d98:	e0bff817 	ldw	r2,-32(fp)
  203d9c:	10c00015 	stw	r3,0(r2)
  203da0:	00010206 	br	2041ac <_realloc_r+0xafc>
  203da4:	e1bfeb17 	ldw	r6,-84(fp)
  203da8:	e17fe417 	ldw	r5,-112(fp)
  203dac:	e13fec17 	ldw	r4,-80(fp)
  203db0:	02019980 	call	201998 <memmove>
  203db4:	0000fd06 	br	2041ac <_realloc_r+0xafc>
  203db8:	e0bfee17 	ldw	r2,-72(fp)
  203dbc:	10007826 	beq	r2,zero,203fa0 <_realloc_r+0x8f0>
  203dc0:	e0ffed17 	ldw	r3,-76(fp)
  203dc4:	e0bffe17 	ldw	r2,-8(fp)
  203dc8:	1885883a 	add	r2,r3,r2
  203dcc:	1007883a 	mov	r3,r2
  203dd0:	e0bff117 	ldw	r2,-60(fp)
  203dd4:	18807216 	blt	r3,r2,203fa0 <_realloc_r+0x8f0>
  203dd8:	e0bfee17 	ldw	r2,-72(fp)
  203ddc:	10800317 	ldw	r2,12(r2)
  203de0:	e0bff015 	stw	r2,-64(fp)
  203de4:	e0bfee17 	ldw	r2,-72(fp)
  203de8:	10800217 	ldw	r2,8(r2)
  203dec:	e0bfef15 	stw	r2,-68(fp)
  203df0:	e0bfef17 	ldw	r2,-68(fp)
  203df4:	e0fff017 	ldw	r3,-64(fp)
  203df8:	10c00315 	stw	r3,12(r2)
  203dfc:	e0bff017 	ldw	r2,-64(fp)
  203e00:	e0ffef17 	ldw	r3,-68(fp)
  203e04:	10c00215 	stw	r3,8(r2)
  203e08:	e0bfee17 	ldw	r2,-72(fp)
  203e0c:	e0bfff15 	stw	r2,-4(fp)
  203e10:	e0fffe17 	ldw	r3,-8(fp)
  203e14:	e0bfed17 	ldw	r2,-76(fp)
  203e18:	1885883a 	add	r2,r3,r2
  203e1c:	e0bffe15 	stw	r2,-8(fp)
  203e20:	e0bfff17 	ldw	r2,-4(fp)
  203e24:	10800204 	addi	r2,r2,8
  203e28:	e0bfec15 	stw	r2,-80(fp)
  203e2c:	e0bff217 	ldw	r2,-56(fp)
  203e30:	10bfff04 	addi	r2,r2,-4
  203e34:	e0bfe915 	stw	r2,-92(fp)
  203e38:	e0bfe917 	ldw	r2,-92(fp)
  203e3c:	10800968 	cmpgeui	r2,r2,37
  203e40:	1000521e 	bne	r2,zero,203f8c <_realloc_r+0x8dc>
  203e44:	e0bfe417 	ldw	r2,-112(fp)
  203e48:	e0bff715 	stw	r2,-36(fp)
  203e4c:	e0bfec17 	ldw	r2,-80(fp)
  203e50:	e0bff615 	stw	r2,-40(fp)
  203e54:	e0bfe917 	ldw	r2,-92(fp)
  203e58:	10800530 	cmpltui	r2,r2,20
  203e5c:	1000361e 	bne	r2,zero,203f38 <_realloc_r+0x888>
  203e60:	e0fff717 	ldw	r3,-36(fp)
  203e64:	18800104 	addi	r2,r3,4
  203e68:	e0bff715 	stw	r2,-36(fp)
  203e6c:	e0bff617 	ldw	r2,-40(fp)
  203e70:	11000104 	addi	r4,r2,4
  203e74:	e13ff615 	stw	r4,-40(fp)
  203e78:	18c00017 	ldw	r3,0(r3)
  203e7c:	10c00015 	stw	r3,0(r2)
  203e80:	e0fff717 	ldw	r3,-36(fp)
  203e84:	18800104 	addi	r2,r3,4
  203e88:	e0bff715 	stw	r2,-36(fp)
  203e8c:	e0bff617 	ldw	r2,-40(fp)
  203e90:	11000104 	addi	r4,r2,4
  203e94:	e13ff615 	stw	r4,-40(fp)
  203e98:	18c00017 	ldw	r3,0(r3)
  203e9c:	10c00015 	stw	r3,0(r2)
  203ea0:	e0bfe917 	ldw	r2,-92(fp)
  203ea4:	10800730 	cmpltui	r2,r2,28
  203ea8:	1000231e 	bne	r2,zero,203f38 <_realloc_r+0x888>
  203eac:	e0fff717 	ldw	r3,-36(fp)
  203eb0:	18800104 	addi	r2,r3,4
  203eb4:	e0bff715 	stw	r2,-36(fp)
  203eb8:	e0bff617 	ldw	r2,-40(fp)
  203ebc:	11000104 	addi	r4,r2,4
  203ec0:	e13ff615 	stw	r4,-40(fp)
  203ec4:	18c00017 	ldw	r3,0(r3)
  203ec8:	10c00015 	stw	r3,0(r2)
  203ecc:	e0fff717 	ldw	r3,-36(fp)
  203ed0:	18800104 	addi	r2,r3,4
  203ed4:	e0bff715 	stw	r2,-36(fp)
  203ed8:	e0bff617 	ldw	r2,-40(fp)
  203edc:	11000104 	addi	r4,r2,4
  203ee0:	e13ff615 	stw	r4,-40(fp)
  203ee4:	18c00017 	ldw	r3,0(r3)
  203ee8:	10c00015 	stw	r3,0(r2)
  203eec:	e0bfe917 	ldw	r2,-92(fp)
  203ef0:	10800930 	cmpltui	r2,r2,36
  203ef4:	1000101e 	bne	r2,zero,203f38 <_realloc_r+0x888>
  203ef8:	e0fff717 	ldw	r3,-36(fp)
  203efc:	18800104 	addi	r2,r3,4
  203f00:	e0bff715 	stw	r2,-36(fp)
  203f04:	e0bff617 	ldw	r2,-40(fp)
  203f08:	11000104 	addi	r4,r2,4
  203f0c:	e13ff615 	stw	r4,-40(fp)
  203f10:	18c00017 	ldw	r3,0(r3)
  203f14:	10c00015 	stw	r3,0(r2)
  203f18:	e0fff717 	ldw	r3,-36(fp)
  203f1c:	18800104 	addi	r2,r3,4
  203f20:	e0bff715 	stw	r2,-36(fp)
  203f24:	e0bff617 	ldw	r2,-40(fp)
  203f28:	11000104 	addi	r4,r2,4
  203f2c:	e13ff615 	stw	r4,-40(fp)
  203f30:	18c00017 	ldw	r3,0(r3)
  203f34:	10c00015 	stw	r3,0(r2)
  203f38:	e0fff717 	ldw	r3,-36(fp)
  203f3c:	18800104 	addi	r2,r3,4
  203f40:	e0bff715 	stw	r2,-36(fp)
  203f44:	e0bff617 	ldw	r2,-40(fp)
  203f48:	11000104 	addi	r4,r2,4
  203f4c:	e13ff615 	stw	r4,-40(fp)
  203f50:	18c00017 	ldw	r3,0(r3)
  203f54:	10c00015 	stw	r3,0(r2)
  203f58:	e0fff717 	ldw	r3,-36(fp)
  203f5c:	18800104 	addi	r2,r3,4
  203f60:	e0bff715 	stw	r2,-36(fp)
  203f64:	e0bff617 	ldw	r2,-40(fp)
  203f68:	11000104 	addi	r4,r2,4
  203f6c:	e13ff615 	stw	r4,-40(fp)
  203f70:	18c00017 	ldw	r3,0(r3)
  203f74:	10c00015 	stw	r3,0(r2)
  203f78:	e0bff717 	ldw	r2,-36(fp)
  203f7c:	10c00017 	ldw	r3,0(r2)
  203f80:	e0bff617 	ldw	r2,-40(fp)
  203f84:	10c00015 	stw	r3,0(r2)
  203f88:	00008806 	br	2041ac <_realloc_r+0xafc>
  203f8c:	e1bfe917 	ldw	r6,-92(fp)
  203f90:	e17fe417 	ldw	r5,-112(fp)
  203f94:	e13fec17 	ldw	r4,-80(fp)
  203f98:	02019980 	call	201998 <memmove>
  203f9c:	00008306 	br	2041ac <_realloc_r+0xafc>
  203fa0:	e17fe317 	ldw	r5,-116(fp)
  203fa4:	e13fe517 	ldw	r4,-108(fp)
  203fa8:	0202b440 	call	202b44 <_malloc_r>
  203fac:	e0bfec15 	stw	r2,-80(fp)
  203fb0:	e0bfec17 	ldw	r2,-80(fp)
  203fb4:	1000041e 	bne	r2,zero,203fc8 <_realloc_r+0x918>
  203fb8:	e13fe517 	ldw	r4,-108(fp)
  203fbc:	02054ac0 	call	2054ac <__malloc_unlock>
  203fc0:	0005883a 	mov	r2,zero
  203fc4:	0000b206 	br	204290 <_realloc_r+0xbe0>
  203fc8:	e0bfec17 	ldw	r2,-80(fp)
  203fcc:	10bffe04 	addi	r2,r2,-8
  203fd0:	e0bfff15 	stw	r2,-4(fp)
  203fd4:	e0bff317 	ldw	r2,-52(fp)
  203fd8:	10c00117 	ldw	r3,4(r2)
  203fdc:	00bfff84 	movi	r2,-2
  203fe0:	1884703a 	and	r2,r3,r2
  203fe4:	e0fff317 	ldw	r3,-52(fp)
  203fe8:	1885883a 	add	r2,r3,r2
  203fec:	e0ffff17 	ldw	r3,-4(fp)
  203ff0:	18800a1e 	bne	r3,r2,20401c <_realloc_r+0x96c>
  203ff4:	e0bfff17 	ldw	r2,-4(fp)
  203ff8:	10c00117 	ldw	r3,4(r2)
  203ffc:	00bfff04 	movi	r2,-4
  204000:	1884703a 	and	r2,r3,r2
  204004:	e0fffe17 	ldw	r3,-8(fp)
  204008:	1885883a 	add	r2,r3,r2
  20400c:	e0bffe15 	stw	r2,-8(fp)
  204010:	e0bff317 	ldw	r2,-52(fp)
  204014:	e0bfff15 	stw	r2,-4(fp)
  204018:	00006406 	br	2041ac <_realloc_r+0xafc>
  20401c:	e0bff217 	ldw	r2,-56(fp)
  204020:	10bfff04 	addi	r2,r2,-4
  204024:	e0bfe815 	stw	r2,-96(fp)
  204028:	e0bfe817 	ldw	r2,-96(fp)
  20402c:	10800968 	cmpgeui	r2,r2,37
  204030:	1000521e 	bne	r2,zero,20417c <_realloc_r+0xacc>
  204034:	e0bfe417 	ldw	r2,-112(fp)
  204038:	e0bff515 	stw	r2,-44(fp)
  20403c:	e0bfec17 	ldw	r2,-80(fp)
  204040:	e0bff415 	stw	r2,-48(fp)
  204044:	e0bfe817 	ldw	r2,-96(fp)
  204048:	10800530 	cmpltui	r2,r2,20
  20404c:	1000361e 	bne	r2,zero,204128 <_realloc_r+0xa78>
  204050:	e0fff517 	ldw	r3,-44(fp)
  204054:	18800104 	addi	r2,r3,4
  204058:	e0bff515 	stw	r2,-44(fp)
  20405c:	e0bff417 	ldw	r2,-48(fp)
  204060:	11000104 	addi	r4,r2,4
  204064:	e13ff415 	stw	r4,-48(fp)
  204068:	18c00017 	ldw	r3,0(r3)
  20406c:	10c00015 	stw	r3,0(r2)
  204070:	e0fff517 	ldw	r3,-44(fp)
  204074:	18800104 	addi	r2,r3,4
  204078:	e0bff515 	stw	r2,-44(fp)
  20407c:	e0bff417 	ldw	r2,-48(fp)
  204080:	11000104 	addi	r4,r2,4
  204084:	e13ff415 	stw	r4,-48(fp)
  204088:	18c00017 	ldw	r3,0(r3)
  20408c:	10c00015 	stw	r3,0(r2)
  204090:	e0bfe817 	ldw	r2,-96(fp)
  204094:	10800730 	cmpltui	r2,r2,28
  204098:	1000231e 	bne	r2,zero,204128 <_realloc_r+0xa78>
  20409c:	e0fff517 	ldw	r3,-44(fp)
  2040a0:	18800104 	addi	r2,r3,4
  2040a4:	e0bff515 	stw	r2,-44(fp)
  2040a8:	e0bff417 	ldw	r2,-48(fp)
  2040ac:	11000104 	addi	r4,r2,4
  2040b0:	e13ff415 	stw	r4,-48(fp)
  2040b4:	18c00017 	ldw	r3,0(r3)
  2040b8:	10c00015 	stw	r3,0(r2)
  2040bc:	e0fff517 	ldw	r3,-44(fp)
  2040c0:	18800104 	addi	r2,r3,4
  2040c4:	e0bff515 	stw	r2,-44(fp)
  2040c8:	e0bff417 	ldw	r2,-48(fp)
  2040cc:	11000104 	addi	r4,r2,4
  2040d0:	e13ff415 	stw	r4,-48(fp)
  2040d4:	18c00017 	ldw	r3,0(r3)
  2040d8:	10c00015 	stw	r3,0(r2)
  2040dc:	e0bfe817 	ldw	r2,-96(fp)
  2040e0:	10800930 	cmpltui	r2,r2,36
  2040e4:	1000101e 	bne	r2,zero,204128 <_realloc_r+0xa78>
  2040e8:	e0fff517 	ldw	r3,-44(fp)
  2040ec:	18800104 	addi	r2,r3,4
  2040f0:	e0bff515 	stw	r2,-44(fp)
  2040f4:	e0bff417 	ldw	r2,-48(fp)
  2040f8:	11000104 	addi	r4,r2,4
  2040fc:	e13ff415 	stw	r4,-48(fp)
  204100:	18c00017 	ldw	r3,0(r3)
  204104:	10c00015 	stw	r3,0(r2)
  204108:	e0fff517 	ldw	r3,-44(fp)
  20410c:	18800104 	addi	r2,r3,4
  204110:	e0bff515 	stw	r2,-44(fp)
  204114:	e0bff417 	ldw	r2,-48(fp)
  204118:	11000104 	addi	r4,r2,4
  20411c:	e13ff415 	stw	r4,-48(fp)
  204120:	18c00017 	ldw	r3,0(r3)
  204124:	10c00015 	stw	r3,0(r2)
  204128:	e0fff517 	ldw	r3,-44(fp)
  20412c:	18800104 	addi	r2,r3,4
  204130:	e0bff515 	stw	r2,-44(fp)
  204134:	e0bff417 	ldw	r2,-48(fp)
  204138:	11000104 	addi	r4,r2,4
  20413c:	e13ff415 	stw	r4,-48(fp)
  204140:	18c00017 	ldw	r3,0(r3)
  204144:	10c00015 	stw	r3,0(r2)
  204148:	e0fff517 	ldw	r3,-44(fp)
  20414c:	18800104 	addi	r2,r3,4
  204150:	e0bff515 	stw	r2,-44(fp)
  204154:	e0bff417 	ldw	r2,-48(fp)
  204158:	11000104 	addi	r4,r2,4
  20415c:	e13ff415 	stw	r4,-48(fp)
  204160:	18c00017 	ldw	r3,0(r3)
  204164:	10c00015 	stw	r3,0(r2)
  204168:	e0bff517 	ldw	r2,-44(fp)
  20416c:	10c00017 	ldw	r3,0(r2)
  204170:	e0bff417 	ldw	r2,-48(fp)
  204174:	10c00015 	stw	r3,0(r2)
  204178:	00000406 	br	20418c <_realloc_r+0xadc>
  20417c:	e1bfe817 	ldw	r6,-96(fp)
  204180:	e17fe417 	ldw	r5,-112(fp)
  204184:	e13fec17 	ldw	r4,-80(fp)
  204188:	02019980 	call	201998 <memmove>
  20418c:	e17fe417 	ldw	r5,-112(fp)
  204190:	e13fe517 	ldw	r4,-108(fp)
  204194:	02020680 	call	202068 <_free_r>
  204198:	e13fe517 	ldw	r4,-108(fp)
  20419c:	02054ac0 	call	2054ac <__malloc_unlock>
  2041a0:	e0bfec17 	ldw	r2,-80(fp)
  2041a4:	00003a06 	br	204290 <_realloc_r+0xbe0>
  2041a8:	0001883a 	nop
  2041ac:	e0fffe17 	ldw	r3,-8(fp)
  2041b0:	e0bff117 	ldw	r2,-60(fp)
  2041b4:	1885c83a 	sub	r2,r3,r2
  2041b8:	e0bfe715 	stw	r2,-100(fp)
  2041bc:	e0bfe717 	ldw	r2,-100(fp)
  2041c0:	10800430 	cmpltui	r2,r2,16
  2041c4:	10001e1e 	bne	r2,zero,204240 <_realloc_r+0xb90>
  2041c8:	e0ffff17 	ldw	r3,-4(fp)
  2041cc:	e0bff117 	ldw	r2,-60(fp)
  2041d0:	1885883a 	add	r2,r3,r2
  2041d4:	e0bfe615 	stw	r2,-104(fp)
  2041d8:	e0bfff17 	ldw	r2,-4(fp)
  2041dc:	10800117 	ldw	r2,4(r2)
  2041e0:	10c0004c 	andi	r3,r2,1
  2041e4:	e0bff117 	ldw	r2,-60(fp)
  2041e8:	1886b03a 	or	r3,r3,r2
  2041ec:	e0bfff17 	ldw	r2,-4(fp)
  2041f0:	10c00115 	stw	r3,4(r2)
  2041f4:	e0bfe717 	ldw	r2,-100(fp)
  2041f8:	10c00054 	ori	r3,r2,1
  2041fc:	e0bfe617 	ldw	r2,-104(fp)
  204200:	10c00115 	stw	r3,4(r2)
  204204:	e0ffe617 	ldw	r3,-104(fp)
  204208:	e0bfe717 	ldw	r2,-100(fp)
  20420c:	1885883a 	add	r2,r3,r2
  204210:	10c00117 	ldw	r3,4(r2)
  204214:	e13fe617 	ldw	r4,-104(fp)
  204218:	e0bfe717 	ldw	r2,-100(fp)
  20421c:	2085883a 	add	r2,r4,r2
  204220:	18c00054 	ori	r3,r3,1
  204224:	10c00115 	stw	r3,4(r2)
  204228:	e0bfe617 	ldw	r2,-104(fp)
  20422c:	10800204 	addi	r2,r2,8
  204230:	100b883a 	mov	r5,r2
  204234:	e13fe517 	ldw	r4,-108(fp)
  204238:	02020680 	call	202068 <_free_r>
  20423c:	00001006 	br	204280 <_realloc_r+0xbd0>
  204240:	e0bfff17 	ldw	r2,-4(fp)
  204244:	10800117 	ldw	r2,4(r2)
  204248:	10c0004c 	andi	r3,r2,1
  20424c:	e0bffe17 	ldw	r2,-8(fp)
  204250:	1886b03a 	or	r3,r3,r2
  204254:	e0bfff17 	ldw	r2,-4(fp)
  204258:	10c00115 	stw	r3,4(r2)
  20425c:	e0ffff17 	ldw	r3,-4(fp)
  204260:	e0bffe17 	ldw	r2,-8(fp)
  204264:	1885883a 	add	r2,r3,r2
  204268:	10c00117 	ldw	r3,4(r2)
  20426c:	e13fff17 	ldw	r4,-4(fp)
  204270:	e0bffe17 	ldw	r2,-8(fp)
  204274:	2085883a 	add	r2,r4,r2
  204278:	18c00054 	ori	r3,r3,1
  20427c:	10c00115 	stw	r3,4(r2)
  204280:	e13fe517 	ldw	r4,-108(fp)
  204284:	02054ac0 	call	2054ac <__malloc_unlock>
  204288:	e0bfff17 	ldw	r2,-4(fp)
  20428c:	10800204 	addi	r2,r2,8
  204290:	e037883a 	mov	sp,fp
  204294:	dfc00117 	ldw	ra,4(sp)
  204298:	df000017 	ldw	fp,0(sp)
  20429c:	dec00204 	addi	sp,sp,8
  2042a0:	f800283a 	ret

002042a4 <_fclose_r>:
#include "local.h"

int
_fclose_r (struct _reent *rptr,
      register FILE * fp)
{
  2042a4:	defffa04 	addi	sp,sp,-24
  2042a8:	dfc00515 	stw	ra,20(sp)
  2042ac:	df000415 	stw	fp,16(sp)
  2042b0:	dc000315 	stw	r16,12(sp)
  2042b4:	df000404 	addi	fp,sp,16
  2042b8:	e13ffc15 	stw	r4,-16(fp)
  2042bc:	2821883a 	mov	r16,r5
  int r;

  if (fp == NULL)
  2042c0:	8000021e 	bne	r16,zero,2042cc <_fclose_r+0x28>
    return (0);			/* on NULL */
  2042c4:	0005883a 	mov	r2,zero
  2042c8:	00003b06 	br	2043b8 <_fclose_r+0x114>

  CHECK_INIT (rptr, fp);
  2042cc:	e0bffc17 	ldw	r2,-16(fp)
  2042d0:	e0bffd15 	stw	r2,-12(fp)
  2042d4:	e0bffd17 	ldw	r2,-12(fp)
  2042d8:	10000526 	beq	r2,zero,2042f0 <_fclose_r+0x4c>
  2042dc:	e0bffd17 	ldw	r2,-12(fp)
  2042e0:	10800d17 	ldw	r2,52(r2)
  2042e4:	1000021e 	bne	r2,zero,2042f0 <_fclose_r+0x4c>
  2042e8:	e13ffd17 	ldw	r4,-12(fp)
  2042ec:	0200a0c0 	call	200a0c <__sinit>
  pthread_setcancelstate (PTHREAD_CANCEL_DISABLE, &__oldcancel);
#endif
  if (!(fp->_flags2 & __SNLK))
    _flockfile (fp);

  if (fp->_flags == 0)		/* not open! */
  2042f0:	8080030b 	ldhu	r2,12(r16)
  2042f4:	10bfffcc 	andi	r2,r2,65535
  2042f8:	10a0001c 	xori	r2,r2,32768
  2042fc:	10a00004 	addi	r2,r2,-32768
  204300:	1000021e 	bne	r2,zero,20430c <_fclose_r+0x68>
      if (!(fp->_flags2 & __SNLK))
	_funlockfile (fp);
#ifdef _STDIO_WITH_THREAD_CANCELLATION_SUPPORT
      pthread_setcancelstate (__oldcancel, &__oldcancel);
#endif
      return (0);
  204304:	0005883a 	mov	r2,zero
  204308:	00002b06 	br	2043b8 <_fclose_r+0x114>
  r = (fp->_flags & __SWR) ? __sflush_r (rptr, fp) : 0;
#else
  /* Follow POSIX semantics exactly.  Unconditionally flush to allow
     special handling for seekable read files to reposition file to last
     byte processed as opposed to last byte read ahead into the buffer. */
  r = __sflush_r (rptr, fp);
  20430c:	800b883a 	mov	r5,r16
  204310:	e13ffc17 	ldw	r4,-16(fp)
  204314:	02044080 	call	204408 <__sflush_r>
  204318:	e0bffe15 	stw	r2,-8(fp)
#endif
  if (fp->_close != NULL && fp->_close (rptr, fp->_cookie) < 0)
  20431c:	80800b17 	ldw	r2,44(r16)
  204320:	10000826 	beq	r2,zero,204344 <_fclose_r+0xa0>
  204324:	80800b17 	ldw	r2,44(r16)
  204328:	80c00717 	ldw	r3,28(r16)
  20432c:	180b883a 	mov	r5,r3
  204330:	e13ffc17 	ldw	r4,-16(fp)
  204334:	103ee83a 	callr	r2
  204338:	1000020e 	bge	r2,zero,204344 <_fclose_r+0xa0>
    r = EOF;
  20433c:	00bfffc4 	movi	r2,-1
  204340:	e0bffe15 	stw	r2,-8(fp)
  if (fp->_flags & __SMBF)
  204344:	8080030b 	ldhu	r2,12(r16)
  204348:	10bfffcc 	andi	r2,r2,65535
  20434c:	1080200c 	andi	r2,r2,128
  204350:	10000426 	beq	r2,zero,204364 <_fclose_r+0xc0>
    _free_r (rptr, (char *) fp->_bf._base);
  204354:	80800417 	ldw	r2,16(r16)
  204358:	100b883a 	mov	r5,r2
  20435c:	e13ffc17 	ldw	r4,-16(fp)
  204360:	02020680 	call	202068 <_free_r>
  if (HASUB (fp))
  204364:	80800c17 	ldw	r2,48(r16)
  204368:	10000826 	beq	r2,zero,20438c <_fclose_r+0xe8>
    FREEUB (rptr, fp);
  20436c:	80c00c17 	ldw	r3,48(r16)
  204370:	80801004 	addi	r2,r16,64
  204374:	18800426 	beq	r3,r2,204388 <_fclose_r+0xe4>
  204378:	80800c17 	ldw	r2,48(r16)
  20437c:	100b883a 	mov	r5,r2
  204380:	e13ffc17 	ldw	r4,-16(fp)
  204384:	02020680 	call	202068 <_free_r>
  204388:	80000c15 	stw	zero,48(r16)
  if (HASLB (fp))
  20438c:	80801117 	ldw	r2,68(r16)
  204390:	10000526 	beq	r2,zero,2043a8 <_fclose_r+0x104>
    FREELB (rptr, fp);
  204394:	80801117 	ldw	r2,68(r16)
  204398:	100b883a 	mov	r5,r2
  20439c:	e13ffc17 	ldw	r4,-16(fp)
  2043a0:	02020680 	call	202068 <_free_r>
  2043a4:	80001115 	stw	zero,68(r16)
  __sfp_lock_acquire ();
  2043a8:	0200a640 	call	200a64 <__sfp_lock_acquire>
  fp->_flags = 0;		/* release this FILE for reuse */
  2043ac:	8000030d 	sth	zero,12(r16)
    _funlockfile (fp);
#ifndef __SINGLE_THREAD__
  __lock_close_recursive (fp->_lock);
#endif

  __sfp_lock_release ();
  2043b0:	0200a840 	call	200a84 <__sfp_lock_release>
#ifdef _STDIO_WITH_THREAD_CANCELLATION_SUPPORT
  pthread_setcancelstate (__oldcancel, &__oldcancel);
#endif

  return (r);
  2043b4:	e0bffe17 	ldw	r2,-8(fp)
}
  2043b8:	e6ffff04 	addi	sp,fp,-4
  2043bc:	dfc00217 	ldw	ra,8(sp)
  2043c0:	df000117 	ldw	fp,4(sp)
  2043c4:	dc000017 	ldw	r16,0(sp)
  2043c8:	dec00304 	addi	sp,sp,12
  2043cc:	f800283a 	ret

002043d0 <fclose>:

#ifndef _REENT_ONLY

int
fclose (register FILE * fp)
{
  2043d0:	defffe04 	addi	sp,sp,-8
  2043d4:	dfc00115 	stw	ra,4(sp)
  2043d8:	df000015 	stw	fp,0(sp)
  2043dc:	d839883a 	mov	fp,sp
  2043e0:	2007883a 	mov	r3,r4
  return _fclose_r(_REENT, fp);
  2043e4:	d0a00017 	ldw	r2,-32768(gp)
  2043e8:	180b883a 	mov	r5,r3
  2043ec:	1009883a 	mov	r4,r2
  2043f0:	02042a40 	call	2042a4 <_fclose_r>
}
  2043f4:	e037883a 	mov	sp,fp
  2043f8:	dfc00117 	ldw	ra,4(sp)
  2043fc:	df000017 	ldw	fp,0(sp)
  204400:	dec00204 	addi	sp,sp,8
  204404:	f800283a 	ret

00204408 <__sflush_r>:
/* Core function which does not lock file pointer.  This gets called
   directly from __srefill. */
int
__sflush_r (struct _reent *ptr,
       register FILE * fp)
{
  204408:	defff504 	addi	sp,sp,-44
  20440c:	dfc00a15 	stw	ra,40(sp)
  204410:	df000915 	stw	fp,36(sp)
  204414:	dcc00815 	stw	r19,32(sp)
  204418:	dc800715 	stw	r18,28(sp)
  20441c:	dc400615 	stw	r17,24(sp)
  204420:	dc000515 	stw	r16,20(sp)
  204424:	df000904 	addi	fp,sp,36
  204428:	e13ff715 	stw	r4,-36(fp)
  20442c:	2821883a 	mov	r16,r5
  register unsigned char *p;
  register _READ_WRITE_BUFSIZE_TYPE n;
  register _READ_WRITE_RETURN_TYPE t;
  short flags;

  flags = fp->_flags;
  204430:	8080030b 	ldhu	r2,12(r16)
  204434:	e0bff98d 	sth	r2,-26(fp)
  if ((flags & __SWR) == 0)
  204438:	e0bff98b 	ldhu	r2,-26(fp)
  20443c:	10bfffcc 	andi	r2,r2,65535
  204440:	1080020c 	andi	r2,r2,8
  204444:	1000831e 	bne	r2,zero,204654 <__sflush_r+0x24c>
    {
#ifdef _FSEEK_OPTIMIZATION
      /* For a read stream, an fflush causes the next seek to be
         unoptimized (i.e. forces a system-level seek).  This conforms
         to the POSIX and SUSv3 standards.  */
      fp->_flags |= __SNPT;
  204448:	8080030b 	ldhu	r2,12(r16)
  20444c:	10820014 	ori	r2,r2,2048
  204450:	8080030d 	sth	r2,12(r16)
         the next byte from the file rather than the buffer.  This conforms
         to the POSIX and SUSv3 standards.  Note that the standards allow
         this seek to be deferred until necessary, but we choose to do it here
         to make the change simpler, more contained, and less likely
         to miss a code scenario.  */
      if ((fp->_r > 0 || fp->_ur > 0) && fp->_seek != NULL)
  204454:	80800117 	ldw	r2,4(r16)
  204458:	00800216 	blt	zero,r2,204464 <__sflush_r+0x5c>
  20445c:	80800f17 	ldw	r2,60(r16)
  204460:	00807a0e 	bge	zero,r2,20464c <__sflush_r+0x244>
  204464:	80800a17 	ldw	r2,40(r16)
  204468:	10007826 	beq	r2,zero,20464c <__sflush_r+0x244>
#endif

	  /* Save last errno and set errno to 0, so we can check if a device
	     returns with a valid position -1.  We restore the last errno if
	     no other error condition has been encountered. */
	  tmp_errno = _REENT_ERRNO(ptr);
  20446c:	e0bff717 	ldw	r2,-36(fp)
  204470:	10800017 	ldw	r2,0(r2)
  204474:	e0bff815 	stw	r2,-32(fp)
	  _REENT_ERRNO(ptr) = 0;
  204478:	e0bff717 	ldw	r2,-36(fp)
  20447c:	10000015 	stw	zero,0(r2)
	  /* Get the physical position we are at in the file.  */
	  if (fp->_flags & __SOFF)
  204480:	8080030b 	ldhu	r2,12(r16)
  204484:	10bfffcc 	andi	r2,r2,65535
  204488:	1084000c 	andi	r2,r2,4096
  20448c:	10000326 	beq	r2,zero,20449c <__sflush_r+0x94>
	    curoff = fp->_offset;
  204490:	80801417 	ldw	r2,80(r16)
  204494:	e0bffb15 	stw	r2,-20(fp)
  204498:	00002206 	br	204524 <__sflush_r+0x11c>
#ifdef __LARGE64_FILES
	      if (fp->_flags & __SL64)
		curoff = fp->_seek64 (ptr, fp->_cookie, 0, SEEK_CUR);
	      else
#endif
		curoff = fp->_seek (ptr, fp->_cookie, 0, SEEK_CUR);
  20449c:	80800a17 	ldw	r2,40(r16)
  2044a0:	80c00717 	ldw	r3,28(r16)
  2044a4:	01c00044 	movi	r7,1
  2044a8:	000d883a 	mov	r6,zero
  2044ac:	180b883a 	mov	r5,r3
  2044b0:	e13ff717 	ldw	r4,-36(fp)
  2044b4:	103ee83a 	callr	r2
  2044b8:	e0bffb15 	stw	r2,-20(fp)
	      if (curoff == -1L && _REENT_ERRNO(ptr) != 0)
  2044bc:	e0bffb17 	ldw	r2,-20(fp)
  2044c0:	10bfffd8 	cmpnei	r2,r2,-1
  2044c4:	1000171e 	bne	r2,zero,204524 <__sflush_r+0x11c>
  2044c8:	e0bff717 	ldw	r2,-36(fp)
  2044cc:	10800017 	ldw	r2,0(r2)
  2044d0:	10001426 	beq	r2,zero,204524 <__sflush_r+0x11c>
		{
		  int result = EOF;
  2044d4:	00bfffc4 	movi	r2,-1
  2044d8:	e0bffa15 	stw	r2,-24(fp)
		  if (_REENT_ERRNO(ptr) == ESPIPE || _REENT_ERRNO(ptr) == EINVAL)
  2044dc:	e0bff717 	ldw	r2,-36(fp)
  2044e0:	10800017 	ldw	r2,0(r2)
  2044e4:	10800760 	cmpeqi	r2,r2,29
  2044e8:	1000041e 	bne	r2,zero,2044fc <__sflush_r+0xf4>
  2044ec:	e0bff717 	ldw	r2,-36(fp)
  2044f0:	10800017 	ldw	r2,0(r2)
  2044f4:	10800598 	cmpnei	r2,r2,22
  2044f8:	1000051e 	bne	r2,zero,204510 <__sflush_r+0x108>
		    {
		      result = 0;
  2044fc:	e03ffa15 	stw	zero,-24(fp)
		      _REENT_ERRNO(ptr) = tmp_errno;
  204500:	e0bff717 	ldw	r2,-36(fp)
  204504:	e0fff817 	ldw	r3,-32(fp)
  204508:	10c00015 	stw	r3,0(r2)
  20450c:	00000306 	br	20451c <__sflush_r+0x114>
		    }
		  else
		    fp->_flags |= __SERR;
  204510:	8080030b 	ldhu	r2,12(r16)
  204514:	10801014 	ori	r2,r2,64
  204518:	8080030d 	sth	r2,12(r16)
		  return result;
  20451c:	e0bffa17 	ldw	r2,-24(fp)
  204520:	00006f06 	br	2046e0 <__sflush_r+0x2d8>
		}
            }
          if (fp->_flags & __SRD)
  204524:	8080030b 	ldhu	r2,12(r16)
  204528:	10bfffcc 	andi	r2,r2,65535
  20452c:	1080010c 	andi	r2,r2,4
  204530:	10000a26 	beq	r2,zero,20455c <__sflush_r+0x154>
            {
              /* Current offset is at end of buffer.  Compensate for
                 characters not yet read.  */
              curoff -= fp->_r;
  204534:	80800117 	ldw	r2,4(r16)
  204538:	e0fffb17 	ldw	r3,-20(fp)
  20453c:	1885c83a 	sub	r2,r3,r2
  204540:	e0bffb15 	stw	r2,-20(fp)
              if (HASUB (fp))
  204544:	80800c17 	ldw	r2,48(r16)
  204548:	10000426 	beq	r2,zero,20455c <__sflush_r+0x154>
                curoff -= fp->_ur;
  20454c:	80800f17 	ldw	r2,60(r16)
  204550:	e0fffb17 	ldw	r3,-20(fp)
  204554:	1885c83a 	sub	r2,r3,r2
  204558:	e0bffb15 	stw	r2,-20(fp)
#ifdef __LARGE64_FILES
	  if (fp->_flags & __SL64)
	    curoff = fp->_seek64 (ptr, fp->_cookie, curoff, SEEK_SET);
	  else
#endif
	    curoff = fp->_seek (ptr, fp->_cookie, curoff, SEEK_SET);
  20455c:	80800a17 	ldw	r2,40(r16)
  204560:	80c00717 	ldw	r3,28(r16)
  204564:	000f883a 	mov	r7,zero
  204568:	e1bffb17 	ldw	r6,-20(fp)
  20456c:	180b883a 	mov	r5,r3
  204570:	e13ff717 	ldw	r4,-36(fp)
  204574:	103ee83a 	callr	r2
  204578:	e0bffb15 	stw	r2,-20(fp)
	  if (curoff != -1 || _REENT_ERRNO(ptr) == 0
  20457c:	e0bffb17 	ldw	r2,-20(fp)
  204580:	10bfffd8 	cmpnei	r2,r2,-1
  204584:	10000b1e 	bne	r2,zero,2045b4 <__sflush_r+0x1ac>
  204588:	e0bff717 	ldw	r2,-36(fp)
  20458c:	10800017 	ldw	r2,0(r2)
  204590:	10000826 	beq	r2,zero,2045b4 <__sflush_r+0x1ac>
	      || _REENT_ERRNO(ptr) == ESPIPE || _REENT_ERRNO(ptr) == EINVAL)
  204594:	e0bff717 	ldw	r2,-36(fp)
  204598:	10800017 	ldw	r2,0(r2)
  20459c:	10800760 	cmpeqi	r2,r2,29
  2045a0:	1000041e 	bne	r2,zero,2045b4 <__sflush_r+0x1ac>
  2045a4:	e0bff717 	ldw	r2,-36(fp)
  2045a8:	10800017 	ldw	r2,0(r2)
  2045ac:	10800598 	cmpnei	r2,r2,22
  2045b0:	1000211e 	bne	r2,zero,204638 <__sflush_r+0x230>
	    {
	      /* Seek successful or ignorable error condition.
		 We can clear read buffer now.  */
#ifdef _FSEEK_OPTIMIZATION
	      fp->_flags &= ~__SNPT;
  2045b4:	80c0030b 	ldhu	r3,12(r16)
  2045b8:	00bdffc4 	movi	r2,-2049
  2045bc:	1884703a 	and	r2,r3,r2
  2045c0:	8080030d 	sth	r2,12(r16)
#endif
	      fp->_r = 0;
  2045c4:	80000115 	stw	zero,4(r16)
	      fp->_p = fp->_bf._base;
  2045c8:	80800417 	ldw	r2,16(r16)
  2045cc:	80800015 	stw	r2,0(r16)
	      if ((fp->_flags & __SOFF) && (curoff != -1 || _REENT_ERRNO(ptr) == 0))
  2045d0:	8080030b 	ldhu	r2,12(r16)
  2045d4:	10bfffcc 	andi	r2,r2,65535
  2045d8:	1084000c 	andi	r2,r2,4096
  2045dc:	10000826 	beq	r2,zero,204600 <__sflush_r+0x1f8>
  2045e0:	e0bffb17 	ldw	r2,-20(fp)
  2045e4:	10bfffd8 	cmpnei	r2,r2,-1
  2045e8:	1000031e 	bne	r2,zero,2045f8 <__sflush_r+0x1f0>
  2045ec:	e0bff717 	ldw	r2,-36(fp)
  2045f0:	10800017 	ldw	r2,0(r2)
  2045f4:	1000021e 	bne	r2,zero,204600 <__sflush_r+0x1f8>
		fp->_offset = curoff;
  2045f8:	e0bffb17 	ldw	r2,-20(fp)
  2045fc:	80801415 	stw	r2,80(r16)
	      _REENT_ERRNO(ptr) = tmp_errno;
  204600:	e0bff717 	ldw	r2,-36(fp)
  204604:	e0fff817 	ldw	r3,-32(fp)
  204608:	10c00015 	stw	r3,0(r2)
	      if (HASUB (fp))
  20460c:	80800c17 	ldw	r2,48(r16)
  204610:	10000e26 	beq	r2,zero,20464c <__sflush_r+0x244>
		FREEUB (ptr, fp);
  204614:	80c00c17 	ldw	r3,48(r16)
  204618:	80801004 	addi	r2,r16,64
  20461c:	18800426 	beq	r3,r2,204630 <__sflush_r+0x228>
  204620:	80800c17 	ldw	r2,48(r16)
  204624:	100b883a 	mov	r5,r2
  204628:	e13ff717 	ldw	r4,-36(fp)
  20462c:	02020680 	call	202068 <_free_r>
  204630:	80000c15 	stw	zero,48(r16)
	      if (HASUB (fp))
  204634:	00000506 	br	20464c <__sflush_r+0x244>
	    }
	  else
	    {
	      fp->_flags |= __SERR;
  204638:	8080030b 	ldhu	r2,12(r16)
  20463c:	10801014 	ori	r2,r2,64
  204640:	8080030d 	sth	r2,12(r16)
	      return EOF;
  204644:	00bfffc4 	movi	r2,-1
  204648:	00002506 	br	2046e0 <__sflush_r+0x2d8>
	    }
	}
      return 0;
  20464c:	0005883a 	mov	r2,zero
  204650:	00002306 	br	2046e0 <__sflush_r+0x2d8>
    }
  if ((p = fp->_bf._base) == NULL)
  204654:	84400417 	ldw	r17,16(r16)
  204658:	8800021e 	bne	r17,zero,204664 <__sflush_r+0x25c>
    {
      /* Nothing to flush.  */
      return 0;
  20465c:	0005883a 	mov	r2,zero
  204660:	00001f06 	br	2046e0 <__sflush_r+0x2d8>
    }
  n = fp->_p - p;		/* write this much */
  204664:	80800017 	ldw	r2,0(r16)
  204668:	1465c83a 	sub	r18,r2,r17
  /*
   * Set these immediately to avoid problems with longjmp
   * and to allow exchange buffering (via setvbuf) in user
   * write function.
   */
  fp->_p = p;
  20466c:	84400015 	stw	r17,0(r16)
  fp->_w = flags & (__SLBF | __SNBF) ? 0 : fp->_bf._size;
  204670:	e0bff98b 	ldhu	r2,-26(fp)
  204674:	10bfffcc 	andi	r2,r2,65535
  204678:	108000cc 	andi	r2,r2,3
  20467c:	1000021e 	bne	r2,zero,204688 <__sflush_r+0x280>
  204680:	80800517 	ldw	r2,20(r16)
  204684:	00000106 	br	20468c <__sflush_r+0x284>
  204688:	0005883a 	mov	r2,zero
  20468c:	80800215 	stw	r2,8(r16)

  while (n > 0)
  204690:	00001106 	br	2046d8 <__sflush_r+0x2d0>
    {
      t = fp->_write (ptr, fp->_cookie, (char *) p, n);
  204694:	80800917 	ldw	r2,36(r16)
  204698:	80c00717 	ldw	r3,28(r16)
  20469c:	900f883a 	mov	r7,r18
  2046a0:	880d883a 	mov	r6,r17
  2046a4:	180b883a 	mov	r5,r3
  2046a8:	e13ff717 	ldw	r4,-36(fp)
  2046ac:	103ee83a 	callr	r2
  2046b0:	1027883a 	mov	r19,r2
      if (t <= 0)
  2046b4:	04c00516 	blt	zero,r19,2046cc <__sflush_r+0x2c4>
	{
          fp->_flags |= __SERR;
  2046b8:	8080030b 	ldhu	r2,12(r16)
  2046bc:	10801014 	ori	r2,r2,64
  2046c0:	8080030d 	sth	r2,12(r16)
          return EOF;
  2046c4:	00bfffc4 	movi	r2,-1
  2046c8:	00000506 	br	2046e0 <__sflush_r+0x2d8>
	}
      p += t;
  2046cc:	9805883a 	mov	r2,r19
  2046d0:	88a3883a 	add	r17,r17,r2
      n -= t;
  2046d4:	94e5c83a 	sub	r18,r18,r19
  while (n > 0)
  2046d8:	04bfee16 	blt	zero,r18,204694 <__sflush_r+0x28c>
    }
  return 0;
  2046dc:	0005883a 	mov	r2,zero
}
  2046e0:	e6fffc04 	addi	sp,fp,-16
  2046e4:	dfc00517 	ldw	ra,20(sp)
  2046e8:	df000417 	ldw	fp,16(sp)
  2046ec:	dcc00317 	ldw	r19,12(sp)
  2046f0:	dc800217 	ldw	r18,8(sp)
  2046f4:	dc400117 	ldw	r17,4(sp)
  2046f8:	dc000017 	ldw	r16,0(sp)
  2046fc:	dec00604 	addi	sp,sp,24
  204700:	f800283a 	ret

00204704 <_fflush_r>:
#endif /* __IMPL_UNLOCKED__ */

int
_fflush_r (struct _reent *ptr,
       register FILE * fp)
{
  204704:	defffa04 	addi	sp,sp,-24
  204708:	dfc00515 	stw	ra,20(sp)
  20470c:	df000415 	stw	fp,16(sp)
  204710:	dc000315 	stw	r16,12(sp)
  204714:	df000404 	addi	fp,sp,16
  204718:	e13ffc15 	stw	r4,-16(fp)
  20471c:	2821883a 	mov	r16,r5
     2 is implemented here due to its simplicity.  */
  if (fp->_bf._base == NULL)
    return 0;
#endif /* _REENT_SMALL  */

  CHECK_INIT (ptr, fp);
  204720:	e0bffc17 	ldw	r2,-16(fp)
  204724:	e0bffe15 	stw	r2,-8(fp)
  204728:	e0bffe17 	ldw	r2,-8(fp)
  20472c:	10000526 	beq	r2,zero,204744 <_fflush_r+0x40>
  204730:	e0bffe17 	ldw	r2,-8(fp)
  204734:	10800d17 	ldw	r2,52(r2)
  204738:	1000021e 	bne	r2,zero,204744 <_fflush_r+0x40>
  20473c:	e13ffe17 	ldw	r4,-8(fp)
  204740:	0200a0c0 	call	200a0c <__sinit>

  if (!fp->_flags)
  204744:	8080030b 	ldhu	r2,12(r16)
  204748:	10bfffcc 	andi	r2,r2,65535
  20474c:	10a0001c 	xori	r2,r2,32768
  204750:	10a00004 	addi	r2,r2,-32768
  204754:	1000021e 	bne	r2,zero,204760 <_fflush_r+0x5c>
    return 0;
  204758:	0005883a 	mov	r2,zero
  20475c:	00000506 	br	204774 <_fflush_r+0x70>

  _newlib_flockfile_start (fp);
  ret = __sflush_r (ptr, fp);
  204760:	800b883a 	mov	r5,r16
  204764:	e13ffc17 	ldw	r4,-16(fp)
  204768:	02044080 	call	204408 <__sflush_r>
  20476c:	e0bffd15 	stw	r2,-12(fp)
  _newlib_flockfile_end (fp);
  return ret;
  204770:	e0bffd17 	ldw	r2,-12(fp)
}
  204774:	e6ffff04 	addi	sp,fp,-4
  204778:	dfc00217 	ldw	ra,8(sp)
  20477c:	df000117 	ldw	fp,4(sp)
  204780:	dc000017 	ldw	r16,0(sp)
  204784:	dec00304 	addi	sp,sp,12
  204788:	f800283a 	ret

0020478c <fflush>:

#ifndef _REENT_ONLY

int
fflush (register FILE * fp)
{
  20478c:	defffe04 	addi	sp,sp,-8
  204790:	dfc00115 	stw	ra,4(sp)
  204794:	df000015 	stw	fp,0(sp)
  204798:	d839883a 	mov	fp,sp
  20479c:	2005883a 	mov	r2,r4
  if (fp == NULL)
  2047a0:	1000081e 	bne	r2,zero,2047c4 <fflush+0x38>
    return _fwalk_sglue (_GLOBAL_REENT, _fflush_r, &__sglue);
  2047a4:	01800834 	movhi	r6,32
  2047a8:	319fd104 	addi	r6,r6,32580
  2047ac:	01400834 	movhi	r5,32
  2047b0:	2951c104 	addi	r5,r5,18180
  2047b4:	01000834 	movhi	r4,32
  2047b8:	211f8a04 	addi	r4,r4,32296
  2047bc:	02011500 	call	201150 <_fwalk_sglue>
  2047c0:	00000406 	br	2047d4 <fflush+0x48>

  return _fflush_r (_REENT, fp);
  2047c4:	d0e00017 	ldw	r3,-32768(gp)
  2047c8:	100b883a 	mov	r5,r2
  2047cc:	1809883a 	mov	r4,r3
  2047d0:	02047040 	call	204704 <_fflush_r>
}
  2047d4:	e037883a 	mov	sp,fp
  2047d8:	dfc00117 	ldw	ra,4(sp)
  2047dc:	df000017 	ldw	fp,0(sp)
  2047e0:	dec00204 	addi	sp,sp,8
  2047e4:	f800283a 	ret

002047e8 <__smakebuf_r>:
 */

void
__smakebuf_r (struct _reent *ptr,
       register FILE *fp)
{
  2047e8:	defff804 	addi	sp,sp,-32
  2047ec:	dfc00715 	stw	ra,28(sp)
  2047f0:	df000615 	stw	fp,24(sp)
  2047f4:	dc400515 	stw	r17,20(sp)
  2047f8:	dc000415 	stw	r16,16(sp)
  2047fc:	df000604 	addi	fp,sp,24
  204800:	e13ffa15 	stw	r4,-24(fp)
  204804:	2821883a 	mov	r16,r5
  register void *p;
  int flags;
  size_t size;
  int couldbetty;

  if (fp->_flags & __SNBF)
  204808:	8080030b 	ldhu	r2,12(r16)
  20480c:	10bfffcc 	andi	r2,r2,65535
  204810:	1080008c 	andi	r2,r2,2
  204814:	10000726 	beq	r2,zero,204834 <__smakebuf_r+0x4c>
    {
      fp->_bf._base = fp->_p = fp->_nbuf;
  204818:	808010c4 	addi	r2,r16,67
  20481c:	80800015 	stw	r2,0(r16)
  204820:	80800017 	ldw	r2,0(r16)
  204824:	80800415 	stw	r2,16(r16)
      fp->_bf._size = 1;
  204828:	00800044 	movi	r2,1
  20482c:	80800515 	stw	r2,20(r16)
  204830:	00004c06 	br	204964 <__smakebuf_r+0x17c>
      return;
    }
  flags = __swhatbuf_r (ptr, fp, &size, &couldbetty);
  204834:	e0fffb04 	addi	r3,fp,-20
  204838:	e0bffc04 	addi	r2,fp,-16
  20483c:	180f883a 	mov	r7,r3
  204840:	100d883a 	mov	r6,r2
  204844:	800b883a 	mov	r5,r16
  204848:	e13ffa17 	ldw	r4,-24(fp)
  20484c:	02049800 	call	204980 <__swhatbuf_r>
  204850:	e0bffd15 	stw	r2,-12(fp)
  /* Make unbuffered by default: */                /* IntelSpecific */
  if (couldbetty && _isatty_r (ptr, fp->_file))    /* IntelSpecific */
  204854:	e0bffb17 	ldw	r2,-20(fp)
  204858:	10001126 	beq	r2,zero,2048a0 <__smakebuf_r+0xb8>
  20485c:	8080038b 	ldhu	r2,14(r16)
  204860:	10bfffcc 	andi	r2,r2,65535
  204864:	10a0001c 	xori	r2,r2,32768
  204868:	10a00004 	addi	r2,r2,-32768
  20486c:	100b883a 	mov	r5,r2
  204870:	e13ffa17 	ldw	r4,-24(fp)
  204874:	0204ad00 	call	204ad0 <_isatty_r>
  204878:	10000926 	beq	r2,zero,2048a0 <__smakebuf_r+0xb8>
  {                                                /* IntelSpecific */
    fp->_flags |= __SLBF;                          /* IntelSpecific __SLBF == "line buffered */
  20487c:	8080030b 	ldhu	r2,12(r16)
  204880:	10800054 	ori	r2,r2,1
  204884:	8080030d 	sth	r2,12(r16)
    fp->_bf._base = fp->_p = fp->_nbuf;            /* IntelSpecific (see newlib/libc/include/stdio.h) */
  204888:	808010c4 	addi	r2,r16,67
  20488c:	80800015 	stw	r2,0(r16)
  204890:	80800017 	ldw	r2,0(r16)
  204894:	80800415 	stw	r2,16(r16)
    fp->_bf._size = 1;                             /* IntelSpecific */
  204898:	00800044 	movi	r2,1
  20489c:	80800515 	stw	r2,20(r16)
  }                                                /* IntelSpecific */
  if ((p = _malloc_r (ptr, size)) == NULL)
  2048a0:	e0bffc17 	ldw	r2,-16(fp)
  2048a4:	100b883a 	mov	r5,r2
  2048a8:	e13ffa17 	ldw	r4,-24(fp)
  2048ac:	0202b440 	call	202b44 <_malloc_r>
  2048b0:	1023883a 	mov	r17,r2
  2048b4:	8800101e 	bne	r17,zero,2048f8 <__smakebuf_r+0x110>
    {
      if (!(fp->_flags & __SSTR))
  2048b8:	8080030b 	ldhu	r2,12(r16)
  2048bc:	10bfffcc 	andi	r2,r2,65535
  2048c0:	1080800c 	andi	r2,r2,512
  2048c4:	1000271e 	bne	r2,zero,204964 <__smakebuf_r+0x17c>
	{
	  fp->_flags = (fp->_flags & ~__SLBF) | __SNBF;
  2048c8:	80c0030b 	ldhu	r3,12(r16)
  2048cc:	00bfff04 	movi	r2,-4
  2048d0:	1884703a 	and	r2,r3,r2
  2048d4:	10800094 	ori	r2,r2,2
  2048d8:	8080030d 	sth	r2,12(r16)
	  fp->_bf._base = fp->_p = fp->_nbuf;
  2048dc:	808010c4 	addi	r2,r16,67
  2048e0:	80800015 	stw	r2,0(r16)
  2048e4:	80800017 	ldw	r2,0(r16)
  2048e8:	80800415 	stw	r2,16(r16)
	  fp->_bf._size = 1;
  2048ec:	00800044 	movi	r2,1
  2048f0:	80800515 	stw	r2,20(r16)
  2048f4:	00001b06 	br	204964 <__smakebuf_r+0x17c>
	}
    }
  else
    {
      fp->_flags |= __SMBF;
  2048f8:	8080030b 	ldhu	r2,12(r16)
  2048fc:	10802014 	ori	r2,r2,128
  204900:	8080030d 	sth	r2,12(r16)
      fp->_bf._base = fp->_p = (unsigned char *) p;
  204904:	84400015 	stw	r17,0(r16)
  204908:	80800017 	ldw	r2,0(r16)
  20490c:	80800415 	stw	r2,16(r16)
      fp->_bf._size = size;
  204910:	e0bffc17 	ldw	r2,-16(fp)
  204914:	80800515 	stw	r2,20(r16)
      if (couldbetty && _isatty_r (ptr, fp->_file))
  204918:	e0bffb17 	ldw	r2,-20(fp)
  20491c:	10000d26 	beq	r2,zero,204954 <__smakebuf_r+0x16c>
  204920:	8080038b 	ldhu	r2,14(r16)
  204924:	10bfffcc 	andi	r2,r2,65535
  204928:	10a0001c 	xori	r2,r2,32768
  20492c:	10a00004 	addi	r2,r2,-32768
  204930:	100b883a 	mov	r5,r2
  204934:	e13ffa17 	ldw	r4,-24(fp)
  204938:	0204ad00 	call	204ad0 <_isatty_r>
  20493c:	10000526 	beq	r2,zero,204954 <__smakebuf_r+0x16c>
	fp->_flags = (fp->_flags & ~__SNBF) | __SLBF;
  204940:	80c0030b 	ldhu	r3,12(r16)
  204944:	00bfff04 	movi	r2,-4
  204948:	1884703a 	and	r2,r3,r2
  20494c:	10800054 	ori	r2,r2,1
  204950:	8080030d 	sth	r2,12(r16)
      fp->_flags |= flags;
  204954:	8080030b 	ldhu	r2,12(r16)
  204958:	e0fffd17 	ldw	r3,-12(fp)
  20495c:	10c4b03a 	or	r2,r2,r3
  204960:	8080030d 	sth	r2,12(r16)
    }
}
  204964:	e6fffe04 	addi	sp,fp,-8
  204968:	dfc00317 	ldw	ra,12(sp)
  20496c:	df000217 	ldw	fp,8(sp)
  204970:	dc400117 	ldw	r17,4(sp)
  204974:	dc000017 	ldw	r16,0(sp)
  204978:	dec00404 	addi	sp,sp,16
  20497c:	f800283a 	ret

00204980 <__swhatbuf_r>:
int
__swhatbuf_r (struct _reent *ptr,
	FILE *fp,
	size_t *bufsize,
	int *couldbetty)
{
  204980:	deffe704 	addi	sp,sp,-100
  204984:	dfc01815 	stw	ra,96(sp)
  204988:	df001715 	stw	fp,92(sp)
  20498c:	df001704 	addi	fp,sp,92
  204990:	e13fec15 	stw	r4,-80(fp)
  204994:	e17feb15 	stw	r5,-84(fp)
  204998:	e1bfea15 	stw	r6,-88(fp)
  20499c:	e1ffe915 	stw	r7,-92(fp)
#ifdef _FSEEK_OPTIMIZATION
  const int snpt = __SNPT;
  2049a0:	00820004 	movi	r2,2048
  2049a4:	e0bfff15 	stw	r2,-4(fp)

  if (fp->_file < 0 || _fstat64_r (ptr, fp->_file, &st) < 0)
#else
  struct stat st;

  if (fp->_file < 0 || _fstat_r (ptr, fp->_file, &st) < 0)
  2049a8:	e0bfeb17 	ldw	r2,-84(fp)
  2049ac:	1080038b 	ldhu	r2,14(r2)
  2049b0:	10bfffcc 	andi	r2,r2,65535
  2049b4:	10a0001c 	xori	r2,r2,32768
  2049b8:	10a00004 	addi	r2,r2,-32768
  2049bc:	10000b16 	blt	r2,zero,2049ec <__swhatbuf_r+0x6c>
  2049c0:	e0bfeb17 	ldw	r2,-84(fp)
  2049c4:	1080038b 	ldhu	r2,14(r2)
  2049c8:	10bfffcc 	andi	r2,r2,65535
  2049cc:	10a0001c 	xori	r2,r2,32768
  2049d0:	10a00004 	addi	r2,r2,-32768
  2049d4:	e0ffed04 	addi	r3,fp,-76
  2049d8:	180d883a 	mov	r6,r3
  2049dc:	100b883a 	mov	r5,r2
  2049e0:	e13fec17 	ldw	r4,-80(fp)
  2049e4:	0204a680 	call	204a68 <_fstat_r>
  2049e8:	1000100e 	bge	r2,zero,204a2c <__swhatbuf_r+0xac>
#endif
    {
      *couldbetty = 0;
  2049ec:	e0bfe917 	ldw	r2,-92(fp)
  2049f0:	10000015 	stw	zero,0(r2)
      /* Check if we are be called by asprintf family for initial buffer.  */
      if (fp->_flags & __SMBF)
  2049f4:	e0bfeb17 	ldw	r2,-84(fp)
  2049f8:	1080030b 	ldhu	r2,12(r2)
  2049fc:	10bfffcc 	andi	r2,r2,65535
  204a00:	1080200c 	andi	r2,r2,128
  204a04:	10000426 	beq	r2,zero,204a18 <__swhatbuf_r+0x98>
        *bufsize = _DEFAULT_ASPRINTF_BUFSIZE;
  204a08:	e0bfea17 	ldw	r2,-88(fp)
  204a0c:	00c01004 	movi	r3,64
  204a10:	10c00015 	stw	r3,0(r2)
  204a14:	00000306 	br	204a24 <__swhatbuf_r+0xa4>
      else
        *bufsize = BUFSIZ;
  204a18:	e0bfea17 	ldw	r2,-88(fp)
  204a1c:	00c10004 	movi	r3,1024
  204a20:	10c00015 	stw	r3,0(r2)
      return (0);
  204a24:	0005883a 	mov	r2,zero
  204a28:	00000a06 	br	204a54 <__swhatbuf_r+0xd4>
    }

  /* could be a tty iff it is a character device */
  *couldbetty = S_ISCHR(st.st_mode);
  204a2c:	e0bfee17 	ldw	r2,-72(fp)
  204a30:	10bc000c 	andi	r2,r2,61440
  204a34:	10880020 	cmpeqi	r2,r2,8192
  204a38:	10c03fcc 	andi	r3,r2,255
  204a3c:	e0bfe917 	ldw	r2,-92(fp)
  204a40:	10c00015 	stw	r3,0(r2)
      *bufsize = st.st_blksize;
      fp->_blksize = st.st_blksize;
      return ((st.st_mode & S_IFMT) == S_IFREG ?  __SOPT : snpt);
    }
#endif
  *bufsize = BUFSIZ;
  204a44:	e0bfea17 	ldw	r2,-88(fp)
  204a48:	00c10004 	movi	r3,1024
  204a4c:	10c00015 	stw	r3,0(r2)
  return (snpt);
  204a50:	e0bfff17 	ldw	r2,-4(fp)
}
  204a54:	e037883a 	mov	sp,fp
  204a58:	dfc00117 	ldw	ra,4(sp)
  204a5c:	df000017 	ldw	fp,0(sp)
  204a60:	dec00204 	addi	sp,sp,8
  204a64:	f800283a 	ret

00204a68 <_fstat_r>:
int
_fstat_r (ptr, fd, pstat)
     struct _reent *ptr;
     int fd;
     struct stat *pstat;
{
  204a68:	defffa04 	addi	sp,sp,-24
  204a6c:	dfc00515 	stw	ra,20(sp)
  204a70:	df000415 	stw	fp,16(sp)
  204a74:	df000404 	addi	fp,sp,16
  204a78:	e13ffe15 	stw	r4,-8(fp)
  204a7c:	e17ffd15 	stw	r5,-12(fp)
  204a80:	e1bffc15 	stw	r6,-16(fp)
  int ret;

  errno = 0;
  204a84:	d0261a15 	stw	zero,-26520(gp)
  if ((ret = _fstat (fd, pstat)) == -1 && errno != 0)
  204a88:	e17ffc17 	ldw	r5,-16(fp)
  204a8c:	e13ffd17 	ldw	r4,-12(fp)
  204a90:	02050800 	call	205080 <fstat>
  204a94:	e0bfff15 	stw	r2,-4(fp)
  204a98:	e0bfff17 	ldw	r2,-4(fp)
  204a9c:	10bfffd8 	cmpnei	r2,r2,-1
  204aa0:	1000051e 	bne	r2,zero,204ab8 <_fstat_r+0x50>
  204aa4:	d0a61a17 	ldw	r2,-26520(gp)
  204aa8:	10000326 	beq	r2,zero,204ab8 <_fstat_r+0x50>
    _REENT_ERRNO(ptr) = errno;
  204aac:	d0e61a17 	ldw	r3,-26520(gp)
  204ab0:	e0bffe17 	ldw	r2,-8(fp)
  204ab4:	10c00015 	stw	r3,0(r2)
  return ret;
  204ab8:	e0bfff17 	ldw	r2,-4(fp)
}
  204abc:	e037883a 	mov	sp,fp
  204ac0:	dfc00117 	ldw	ra,4(sp)
  204ac4:	df000017 	ldw	fp,0(sp)
  204ac8:	dec00204 	addi	sp,sp,8
  204acc:	f800283a 	ret

00204ad0 <_isatty_r>:

int
_isatty_r (ptr, fd)
     struct _reent *ptr;
     int fd;
{
  204ad0:	defffb04 	addi	sp,sp,-20
  204ad4:	dfc00415 	stw	ra,16(sp)
  204ad8:	df000315 	stw	fp,12(sp)
  204adc:	df000304 	addi	fp,sp,12
  204ae0:	e13ffe15 	stw	r4,-8(fp)
  204ae4:	e17ffd15 	stw	r5,-12(fp)
  int ret;

  errno = 0;
  204ae8:	d0261a15 	stw	zero,-26520(gp)
  if ((ret = _isatty (fd)) == -1 && errno != 0)
  204aec:	e13ffd17 	ldw	r4,-12(fp)
  204af0:	020516c0 	call	20516c <isatty>
  204af4:	e0bfff15 	stw	r2,-4(fp)
  204af8:	e0bfff17 	ldw	r2,-4(fp)
  204afc:	10bfffd8 	cmpnei	r2,r2,-1
  204b00:	1000051e 	bne	r2,zero,204b18 <_isatty_r+0x48>
  204b04:	d0a61a17 	ldw	r2,-26520(gp)
  204b08:	10000326 	beq	r2,zero,204b18 <_isatty_r+0x48>
    _REENT_ERRNO(ptr) = errno;
  204b0c:	d0e61a17 	ldw	r3,-26520(gp)
  204b10:	e0bffe17 	ldw	r2,-8(fp)
  204b14:	10c00015 	stw	r3,0(r2)
  return ret;
  204b18:	e0bfff17 	ldw	r2,-4(fp)
}
  204b1c:	e037883a 	mov	sp,fp
  204b20:	dfc00117 	ldw	ra,4(sp)
  204b24:	df000017 	ldw	fp,0(sp)
  204b28:	dec00204 	addi	sp,sp,8
  204b2c:	f800283a 	ret

00204b30 <_sbrk_r>:
*/

void *
_sbrk_r (struct _reent *ptr,
     ptrdiff_t incr)
{
  204b30:	defffb04 	addi	sp,sp,-20
  204b34:	dfc00415 	stw	ra,16(sp)
  204b38:	df000315 	stw	fp,12(sp)
  204b3c:	df000304 	addi	fp,sp,12
  204b40:	e13ffe15 	stw	r4,-8(fp)
  204b44:	e17ffd15 	stw	r5,-12(fp)
  char *ret;
  void *_sbrk(ptrdiff_t);

  errno = 0;
  204b48:	d0261a15 	stw	zero,-26520(gp)
  if ((ret = (char *)(_sbrk (incr))) == (void *) -1 && errno != 0)
  204b4c:	e13ffd17 	ldw	r4,-12(fp)
  204b50:	02056600 	call	205660 <sbrk>
  204b54:	e0bfff15 	stw	r2,-4(fp)
  204b58:	e0bfff17 	ldw	r2,-4(fp)
  204b5c:	10bfffd8 	cmpnei	r2,r2,-1
  204b60:	1000051e 	bne	r2,zero,204b78 <_sbrk_r+0x48>
  204b64:	d0a61a17 	ldw	r2,-26520(gp)
  204b68:	10000326 	beq	r2,zero,204b78 <_sbrk_r+0x48>
    _REENT_ERRNO(ptr) = errno;
  204b6c:	d0e61a17 	ldw	r3,-26520(gp)
  204b70:	e0bffe17 	ldw	r2,-8(fp)
  204b74:	10c00015 	stw	r3,0(r2)
  return ret;
  204b78:	e0bfff17 	ldw	r2,-4(fp)
}
  204b7c:	e037883a 	mov	sp,fp
  204b80:	dfc00117 	ldw	ra,4(sp)
  204b84:	df000017 	ldw	fp,0(sp)
  204b88:	dec00204 	addi	sp,sp,8
  204b8c:	f800283a 	ret

00204b90 <__call_exitprocs>:
 * otherwise only the handlers from that DSO are called.
 */

void 
__call_exitprocs (int code, void *d)
{
  204b90:	defff504 	addi	sp,sp,-44
  204b94:	dfc00a15 	stw	ra,40(sp)
  204b98:	df000915 	stw	fp,36(sp)
  204b9c:	dc800815 	stw	r18,32(sp)
  204ba0:	dc400715 	stw	r17,28(sp)
  204ba4:	dc000615 	stw	r16,24(sp)
  204ba8:	df000904 	addi	fp,sp,36
  204bac:	e13ff815 	stw	r4,-32(fp)
  204bb0:	e17ff715 	stw	r5,-36(fp)
  __lock_acquire_recursive(__atexit_recursive_mutex);
#endif

 restart:

  p = __atexit;
  204bb4:	d4262017 	ldw	r16,-26496(gp)
  lastp = &__atexit;
  204bb8:	d0a62004 	addi	r2,gp,-26496
  204bbc:	e0bffc15 	stw	r2,-16(fp)
  while (p)
  204bc0:	0001883a 	nop
  204bc4:	80004b26 	beq	r16,zero,204cf4 <__call_exitprocs+0x164>
    {
#ifdef _REENT_SMALL
      args = p->_on_exit_args_ptr;
#else
      args = &p->_on_exit_args;
  204bc8:	84802204 	addi	r18,r16,136
#endif
      for (n = p->_ind - 1; n >= 0; n--)
  204bcc:	80800117 	ldw	r2,4(r16)
  204bd0:	147fffc4 	addi	r17,r2,-1
  204bd4:	00004506 	br	204cec <__call_exitprocs+0x15c>
	{
	  int ind;

	  i = 1 << n;
  204bd8:	00800044 	movi	r2,1
  204bdc:	1444983a 	sll	r2,r2,r17
  204be0:	e0bffb15 	stw	r2,-20(fp)

	  /* Skip functions not from this dso.  */
	  if (d && (!args || args->_dso_handle[n] != d))
  204be4:	e0bff717 	ldw	r2,-36(fp)
  204be8:	10000726 	beq	r2,zero,204c08 <__call_exitprocs+0x78>
  204bec:	90003b26 	beq	r18,zero,204cdc <__call_exitprocs+0x14c>
  204bf0:	88800804 	addi	r2,r17,32
  204bf4:	100490ba 	slli	r2,r2,2
  204bf8:	9085883a 	add	r2,r18,r2
  204bfc:	10800017 	ldw	r2,0(r2)
  204c00:	e0fff717 	ldw	r3,-36(fp)
  204c04:	1880351e 	bne	r3,r2,204cdc <__call_exitprocs+0x14c>
	    continue;

	  /* Remove the function now to protect against the
	     function calling exit recursively.  */
	  fn = p->_fns[n];
  204c08:	88800084 	addi	r2,r17,2
  204c0c:	100490ba 	slli	r2,r2,2
  204c10:	8085883a 	add	r2,r16,r2
  204c14:	10800017 	ldw	r2,0(r2)
  204c18:	e0bffa15 	stw	r2,-24(fp)
	  if (n == p->_ind - 1)
  204c1c:	80800117 	ldw	r2,4(r16)
  204c20:	10bfffc4 	addi	r2,r2,-1
  204c24:	8880041e 	bne	r17,r2,204c38 <__call_exitprocs+0xa8>
	    p->_ind--;
  204c28:	80800117 	ldw	r2,4(r16)
  204c2c:	10bfffc4 	addi	r2,r2,-1
  204c30:	80800115 	stw	r2,4(r16)
  204c34:	00000406 	br	204c48 <__call_exitprocs+0xb8>
	  else
	    p->_fns[n] = NULL;
  204c38:	88800084 	addi	r2,r17,2
  204c3c:	100490ba 	slli	r2,r2,2
  204c40:	8085883a 	add	r2,r16,r2
  204c44:	10000015 	stw	zero,0(r2)

	  /* Skip functions that have already been called.  */
	  if (!fn)
  204c48:	e0bffa17 	ldw	r2,-24(fp)
  204c4c:	10002526 	beq	r2,zero,204ce4 <__call_exitprocs+0x154>
	    continue;

	  ind = p->_ind;
  204c50:	80800117 	ldw	r2,4(r16)
  204c54:	e0bff915 	stw	r2,-28(fp)

	  /* Call the function.  */
	  if (!args || (args->_fntypes & i) == 0)
  204c58:	90000426 	beq	r18,zero,204c6c <__call_exitprocs+0xdc>
  204c5c:	90c04017 	ldw	r3,256(r18)
  204c60:	e0bffb17 	ldw	r2,-20(fp)
  204c64:	1884703a 	and	r2,r3,r2
  204c68:	1000031e 	bne	r2,zero,204c78 <__call_exitprocs+0xe8>
	    fn ();
  204c6c:	e0bffa17 	ldw	r2,-24(fp)
  204c70:	103ee83a 	callr	r2
  204c74:	00001206 	br	204cc0 <__call_exitprocs+0x130>
	  else if ((args->_is_cxa & i) == 0)
  204c78:	90c04117 	ldw	r3,260(r18)
  204c7c:	e0bffb17 	ldw	r2,-20(fp)
  204c80:	1884703a 	and	r2,r3,r2
  204c84:	1000081e 	bne	r2,zero,204ca8 <__call_exitprocs+0x118>
	    (*((void (*)(int, void *)) fn))(code, args->_fnargs[n]);
  204c88:	880490ba 	slli	r2,r17,2
  204c8c:	9085883a 	add	r2,r18,r2
  204c90:	10c00017 	ldw	r3,0(r2)
  204c94:	e0bffa17 	ldw	r2,-24(fp)
  204c98:	180b883a 	mov	r5,r3
  204c9c:	e13ff817 	ldw	r4,-32(fp)
  204ca0:	103ee83a 	callr	r2
  204ca4:	00000606 	br	204cc0 <__call_exitprocs+0x130>
	  else
	    (*((void (*)(void *)) fn))(args->_fnargs[n]);
  204ca8:	880490ba 	slli	r2,r17,2
  204cac:	9085883a 	add	r2,r18,r2
  204cb0:	10c00017 	ldw	r3,0(r2)
  204cb4:	e0bffa17 	ldw	r2,-24(fp)
  204cb8:	1809883a 	mov	r4,r3
  204cbc:	103ee83a 	callr	r2

	  /* The function we called call atexit and registered another
	     function (or functions).  Call these new functions before
	     continuing with the already registered functions.  */
	  if (ind != p->_ind || *lastp != p)
  204cc0:	80800117 	ldw	r2,4(r16)
  204cc4:	e0fff917 	ldw	r3,-28(fp)
  204cc8:	18bfba1e 	bne	r3,r2,204bb4 <__call_exitprocs+0x24>
  204ccc:	e0bffc17 	ldw	r2,-16(fp)
  204cd0:	10800017 	ldw	r2,0(r2)
  204cd4:	80800426 	beq	r16,r2,204ce8 <__call_exitprocs+0x158>
	    goto restart;
  204cd8:	003fb606 	br	204bb4 <__call_exitprocs+0x24>
	    continue;
  204cdc:	0001883a 	nop
  204ce0:	00000106 	br	204ce8 <__call_exitprocs+0x158>
	    continue;
  204ce4:	0001883a 	nop
      for (n = p->_ind - 1; n >= 0; n--)
  204ce8:	8c7fffc4 	addi	r17,r17,-1
  204cec:	883fba0e 	bge	r17,zero,204bd8 <__call_exitprocs+0x48>
	}

#if !defined (_ATEXIT_DYNAMIC_ALLOC) || !defined (MALLOC_PROVIDED)
      break;
  204cf0:	00000106 	br	204cf8 <__call_exitprocs+0x168>
    }
#ifndef __SINGLE_THREAD__
  __lock_release_recursive(__atexit_recursive_mutex);
#endif

}
  204cf4:	0001883a 	nop
  204cf8:	0001883a 	nop
  204cfc:	e6fffd04 	addi	sp,fp,-12
  204d00:	dfc00417 	ldw	ra,16(sp)
  204d04:	df000317 	ldw	fp,12(sp)
  204d08:	dc800217 	ldw	r18,8(sp)
  204d0c:	dc400117 	ldw	r17,4(sp)
  204d10:	dc000017 	ldw	r16,0(sp)
  204d14:	dec00504 	addi	sp,sp,20
  204d18:	f800283a 	ret

00204d1c <__divsi3>:
  204d1c:	20001a16 	blt	r4,zero,204d88 <__divsi3+0x6c>
  204d20:	000f883a 	mov	r7,zero
  204d24:	2800020e 	bge	r5,zero,204d30 <__divsi3+0x14>
  204d28:	014bc83a 	sub	r5,zero,r5
  204d2c:	39c0005c 	xori	r7,r7,1
  204d30:	200d883a 	mov	r6,r4
  204d34:	00c00044 	movi	r3,1
  204d38:	2900092e 	bgeu	r5,r4,204d60 <__divsi3+0x44>
  204d3c:	00800804 	movi	r2,32
  204d40:	00c00044 	movi	r3,1
  204d44:	00000106 	br	204d4c <__divsi3+0x30>
  204d48:	10001226 	beq	r2,zero,204d94 <__divsi3+0x78>
  204d4c:	294b883a 	add	r5,r5,r5
  204d50:	10bfffc4 	addi	r2,r2,-1
  204d54:	18c7883a 	add	r3,r3,r3
  204d58:	293ffb36 	bltu	r5,r4,204d48 <__divsi3+0x2c>
  204d5c:	18000d26 	beq	r3,zero,204d94 <__divsi3+0x78>
  204d60:	0005883a 	mov	r2,zero
  204d64:	31400236 	bltu	r6,r5,204d70 <__divsi3+0x54>
  204d68:	314dc83a 	sub	r6,r6,r5
  204d6c:	10c4b03a 	or	r2,r2,r3
  204d70:	1806d07a 	srli	r3,r3,1
  204d74:	280ad07a 	srli	r5,r5,1
  204d78:	183ffa1e 	bne	r3,zero,204d64 <__divsi3+0x48>
  204d7c:	38000126 	beq	r7,zero,204d84 <__divsi3+0x68>
  204d80:	0085c83a 	sub	r2,zero,r2
  204d84:	f800283a 	ret
  204d88:	0109c83a 	sub	r4,zero,r4
  204d8c:	01c00044 	movi	r7,1
  204d90:	003fe406 	br	204d24 <__divsi3+0x8>
  204d94:	0005883a 	mov	r2,zero
  204d98:	003ff806 	br	204d7c <__divsi3+0x60>

00204d9c <__modsi3>:
  204d9c:	20001716 	blt	r4,zero,204dfc <__modsi3+0x60>
  204da0:	000f883a 	mov	r7,zero
  204da4:	2005883a 	mov	r2,r4
  204da8:	2800010e 	bge	r5,zero,204db0 <__modsi3+0x14>
  204dac:	014bc83a 	sub	r5,zero,r5
  204db0:	00c00044 	movi	r3,1
  204db4:	2900092e 	bgeu	r5,r4,204ddc <__modsi3+0x40>
  204db8:	01800804 	movi	r6,32
  204dbc:	00c00044 	movi	r3,1
  204dc0:	00000106 	br	204dc8 <__modsi3+0x2c>
  204dc4:	30001026 	beq	r6,zero,204e08 <__modsi3+0x6c>
  204dc8:	294b883a 	add	r5,r5,r5
  204dcc:	31bfffc4 	addi	r6,r6,-1
  204dd0:	18c7883a 	add	r3,r3,r3
  204dd4:	293ffb36 	bltu	r5,r4,204dc4 <__modsi3+0x28>
  204dd8:	18000b26 	beq	r3,zero,204e08 <__modsi3+0x6c>
  204ddc:	1806d07a 	srli	r3,r3,1
  204de0:	11400136 	bltu	r2,r5,204de8 <__modsi3+0x4c>
  204de4:	1145c83a 	sub	r2,r2,r5
  204de8:	280ad07a 	srli	r5,r5,1
  204dec:	183ffb1e 	bne	r3,zero,204ddc <__modsi3+0x40>
  204df0:	38000126 	beq	r7,zero,204df8 <__modsi3+0x5c>
  204df4:	0085c83a 	sub	r2,zero,r2
  204df8:	f800283a 	ret
  204dfc:	0109c83a 	sub	r4,zero,r4
  204e00:	01c00044 	movi	r7,1
  204e04:	003fe706 	br	204da4 <__modsi3+0x8>
  204e08:	2005883a 	mov	r2,r4
  204e0c:	003ff806 	br	204df0 <__modsi3+0x54>

00204e10 <__udivsi3>:
  204e10:	200d883a 	mov	r6,r4
  204e14:	2900152e 	bgeu	r5,r4,204e6c <__udivsi3+0x5c>
  204e18:	28001416 	blt	r5,zero,204e6c <__udivsi3+0x5c>
  204e1c:	00800804 	movi	r2,32
  204e20:	00c00044 	movi	r3,1
  204e24:	00000206 	br	204e30 <__udivsi3+0x20>
  204e28:	10000e26 	beq	r2,zero,204e64 <__udivsi3+0x54>
  204e2c:	28000416 	blt	r5,zero,204e40 <__udivsi3+0x30>
  204e30:	294b883a 	add	r5,r5,r5
  204e34:	10bfffc4 	addi	r2,r2,-1
  204e38:	18c7883a 	add	r3,r3,r3
  204e3c:	293ffa36 	bltu	r5,r4,204e28 <__udivsi3+0x18>
  204e40:	18000826 	beq	r3,zero,204e64 <__udivsi3+0x54>
  204e44:	0005883a 	mov	r2,zero
  204e48:	31400236 	bltu	r6,r5,204e54 <__udivsi3+0x44>
  204e4c:	314dc83a 	sub	r6,r6,r5
  204e50:	10c4b03a 	or	r2,r2,r3
  204e54:	1806d07a 	srli	r3,r3,1
  204e58:	280ad07a 	srli	r5,r5,1
  204e5c:	183ffa1e 	bne	r3,zero,204e48 <__udivsi3+0x38>
  204e60:	f800283a 	ret
  204e64:	0005883a 	mov	r2,zero
  204e68:	f800283a 	ret
  204e6c:	00c00044 	movi	r3,1
  204e70:	003ff406 	br	204e44 <__udivsi3+0x34>

00204e74 <__umodsi3>:
  204e74:	2005883a 	mov	r2,r4
  204e78:	2900132e 	bgeu	r5,r4,204ec8 <__umodsi3+0x54>
  204e7c:	28001216 	blt	r5,zero,204ec8 <__umodsi3+0x54>
  204e80:	01800804 	movi	r6,32
  204e84:	00c00044 	movi	r3,1
  204e88:	00000206 	br	204e94 <__umodsi3+0x20>
  204e8c:	30000c26 	beq	r6,zero,204ec0 <__umodsi3+0x4c>
  204e90:	28000416 	blt	r5,zero,204ea4 <__umodsi3+0x30>
  204e94:	294b883a 	add	r5,r5,r5
  204e98:	31bfffc4 	addi	r6,r6,-1
  204e9c:	18c7883a 	add	r3,r3,r3
  204ea0:	293ffa36 	bltu	r5,r4,204e8c <__umodsi3+0x18>
  204ea4:	18000626 	beq	r3,zero,204ec0 <__umodsi3+0x4c>
  204ea8:	1806d07a 	srli	r3,r3,1
  204eac:	11400136 	bltu	r2,r5,204eb4 <__umodsi3+0x40>
  204eb0:	1145c83a 	sub	r2,r2,r5
  204eb4:	280ad07a 	srli	r5,r5,1
  204eb8:	183ffb1e 	bne	r3,zero,204ea8 <__umodsi3+0x34>
  204ebc:	f800283a 	ret
  204ec0:	2005883a 	mov	r2,r4
  204ec4:	f800283a 	ret
  204ec8:	00c00044 	movi	r3,1
  204ecc:	003ff606 	br	204ea8 <__umodsi3+0x34>

00204ed0 <alt_get_errno>:

  if (fd)
  {
    /*
     * If the associated file system/device has a close function, call it so 
     * that any necessary cleanup code can run.
  204ed0:	defffe04 	addi	sp,sp,-8
  204ed4:	dfc00115 	stw	ra,4(sp)
  204ed8:	df000015 	stw	fp,0(sp)
  204edc:	d839883a 	mov	fp,sp
     */
  204ee0:	d0a00817 	ldw	r2,-32736(gp)
  204ee4:	10000326 	beq	r2,zero,204ef4 <alt_get_errno+0x24>
  204ee8:	d0a00817 	ldw	r2,-32736(gp)
  204eec:	103ee83a 	callr	r2
  204ef0:	00000106 	br	204ef8 <alt_get_errno+0x28>
  204ef4:	d0a61a04 	addi	r2,gp,-26520

  204ef8:	e037883a 	mov	sp,fp
  204efc:	dfc00117 	ldw	ra,4(sp)
  204f00:	df000017 	ldw	fp,0(sp)
  204f04:	dec00204 	addi	sp,sp,8
  204f08:	f800283a 	ret

00204f0c <close>:
{
  204f0c:	defffb04 	addi	sp,sp,-20
  204f10:	dfc00415 	stw	ra,16(sp)
  204f14:	df000315 	stw	fp,12(sp)
  204f18:	df000304 	addi	fp,sp,12
  204f1c:	e13ffd15 	stw	r4,-12(fp)
  fd = (fildes < 0) ? NULL : &alt_fd_list[fildes];
  204f20:	e0bffd17 	ldw	r2,-12(fp)
  204f24:	10000616 	blt	r2,zero,204f40 <close+0x34>
  204f28:	e0bffd17 	ldw	r2,-12(fp)
  204f2c:	10c00324 	muli	r3,r2,12
  204f30:	00800874 	movhi	r2,33
  204f34:	10a0e004 	addi	r2,r2,-31872
  204f38:	1885883a 	add	r2,r3,r2
  204f3c:	00000106 	br	204f44 <close+0x38>
  204f40:	0005883a 	mov	r2,zero
  204f44:	e0bfff15 	stw	r2,-4(fp)
  if (fd)
  204f48:	e0bfff17 	ldw	r2,-4(fp)
  204f4c:	10001926 	beq	r2,zero,204fb4 <close+0xa8>
    rval = (fd->dev->close) ? fd->dev->close(fd) : 0;
  204f50:	e0bfff17 	ldw	r2,-4(fp)
  204f54:	10800017 	ldw	r2,0(r2)
  204f58:	10800417 	ldw	r2,16(r2)
  204f5c:	10000626 	beq	r2,zero,204f78 <close+0x6c>
  204f60:	e0bfff17 	ldw	r2,-4(fp)
  204f64:	10800017 	ldw	r2,0(r2)
  204f68:	10800417 	ldw	r2,16(r2)
  204f6c:	e13fff17 	ldw	r4,-4(fp)
  204f70:	103ee83a 	callr	r2
  204f74:	00000106 	br	204f7c <close+0x70>
  204f78:	0005883a 	mov	r2,zero
  204f7c:	e0bffe15 	stw	r2,-8(fp)

    /* Free the file descriptor structure and return. */

    alt_release_fd (fildes);
  204f80:	e13ffd17 	ldw	r4,-12(fp)
  204f84:	02056080 	call	205608 <alt_release_fd>
    if (rval < 0)
  204f88:	e0bffe17 	ldw	r2,-8(fp)
  204f8c:	1000070e 	bge	r2,zero,204fac <close+0xa0>
    {
      ALT_ERRNO = -rval;
  204f90:	0204ed00 	call	204ed0 <alt_get_errno>
  204f94:	1007883a 	mov	r3,r2
  204f98:	e0bffe17 	ldw	r2,-8(fp)
  204f9c:	0085c83a 	sub	r2,zero,r2
  204fa0:	18800015 	stw	r2,0(r3)
      return -1;
  204fa4:	00bfffc4 	movi	r2,-1
  204fa8:	00000706 	br	204fc8 <close+0xbc>
    }
    return 0;
  204fac:	0005883a 	mov	r2,zero
  204fb0:	00000506 	br	204fc8 <close+0xbc>
  }
  else
  {
    ALT_ERRNO = EBADFD;
  204fb4:	0204ed00 	call	204ed0 <alt_get_errno>
  204fb8:	1007883a 	mov	r3,r2
  204fbc:	00801444 	movi	r2,81
  204fc0:	18800015 	stw	r2,0(r3)
    return -1;
  204fc4:	00bfffc4 	movi	r2,-1
  }
}
  204fc8:	e037883a 	mov	sp,fp
  204fcc:	dfc00117 	ldw	ra,4(sp)
  204fd0:	df000017 	ldw	fp,0(sp)
  204fd4:	dec00204 	addi	sp,sp,8
  204fd8:	f800283a 	ret

00204fdc <alt_dev_null_write>:
 * by the alt_dev_null device. It simple discards all data passed to it, and
 * indicates that the data has been successfully transmitted.
 */

static int alt_dev_null_write (alt_fd* fd, const char* ptr, int len)
{
  204fdc:	defffc04 	addi	sp,sp,-16
  204fe0:	df000315 	stw	fp,12(sp)
  204fe4:	df000304 	addi	fp,sp,12
  204fe8:	e13fff15 	stw	r4,-4(fp)
  204fec:	e17ffe15 	stw	r5,-8(fp)
  204ff0:	e1bffd15 	stw	r6,-12(fp)
  return len;
  204ff4:	e0bffd17 	ldw	r2,-12(fp)
}
  204ff8:	e037883a 	mov	sp,fp
  204ffc:	df000017 	ldw	fp,0(sp)
  205000:	dec00104 	addi	sp,sp,4
  205004:	f800283a 	ret

00205008 <_exit>:
 *
 * ALT_EXIT is mapped onto the _exit() system call in alt_syscall.h
 */

void ALT_EXIT (int exit_code)
{
  205008:	defffd04 	addi	sp,sp,-12
  20500c:	df000215 	stw	fp,8(sp)
  205010:	df000204 	addi	fp,sp,8
  205014:	e13ffe15 	stw	r4,-8(fp)
  ALT_LOG_PRINT_BOOT("[alt_exit.c] Entering _exit() function.\r\n");
  ALT_LOG_PRINT_BOOT("[alt_exit.c] Exit code from main was %d.\r\n",exit_code);
  /* Stop all other threads */

  ALT_LOG_PRINT_BOOT("[alt_exit.c] Calling ALT_OS_STOP().\r\n");
  ALT_OS_STOP();
  205018:	0001883a 	nop
  20501c:	e0bffe17 	ldw	r2,-8(fp)
  205020:	e0bfff15 	stw	r2,-4(fp)
/*
 * Routine called on exit.
 */
static ALT_INLINE ALT_ALWAYS_INLINE void alt_sim_halt(int exit_code)
{
  register int r2 asm ("r2") = exit_code;
  205024:	e0bfff17 	ldw	r2,-4(fp)
  __asm__ volatile ("\n0:\n\taddi %0,%0, -1\n\tbgt %0,zero,0b" : : "r" (ALT_CPU_FREQ/100) ); /* Delay for >30ms */

  __asm__ volatile ("break 2" : : "r"(r2), "r"(r3) ALT_GMON_DATA );

#else /* !DEBUG_STUB */
  if (r2) {
  205028:	10000226 	beq	r2,zero,205034 <_exit+0x2c>
    ALT_SIM_FAIL();
  20502c:	002af070 	cmpltui	zero,zero,43969
  } else {
    ALT_SIM_PASS();
  }
#endif /* DEBUG_STUB */
}
  205030:	00000106 	br	205038 <_exit+0x30>
    ALT_SIM_PASS();
  205034:	002af0b0 	cmpltui	zero,zero,43970
}
  205038:	0001883a 	nop
  ALT_SIM_HALT(exit_code);

  /* spin forever, since there's no where to go back to */

  ALT_LOG_PRINT_BOOT("[alt_exit.c] Spinning forever.\r\n");
  while (1);
  20503c:	0001883a 	nop
  205040:	003ffe06 	br	20503c <_exit+0x34>

00205044 <alt_get_errno>:
        return 0;
    default:
        return -1;
    }

#if !defined(ALT_STDIN_PRESENT) && !defined(ALT_STDOUT_PRESENT) && !defined(ALT_STDERR_PRESENT)
  205044:	defffe04 	addi	sp,sp,-8
  205048:	dfc00115 	stw	ra,4(sp)
  20504c:	df000015 	stw	fp,0(sp)
  205050:	d839883a 	mov	fp,sp
    /* Generate a link time warning, should this function ever be called. */
  205054:	d0a00817 	ldw	r2,-32736(gp)
